ARM GAS  C:\Users\digit\AppData\Local\Temp\ccMK4Fcw.s 			page 1


   1              		.cpu cortex-m7
   2              		.eabi_attribute 28, 1
   3              		.eabi_attribute 20, 1
   4              		.eabi_attribute 21, 1
   5              		.eabi_attribute 23, 3
   6              		.eabi_attribute 24, 1
   7              		.eabi_attribute 25, 1
   8              		.eabi_attribute 26, 1
   9              		.eabi_attribute 30, 2
  10              		.eabi_attribute 34, 1
  11              		.eabi_attribute 18, 4
  12              		.file	"Dattorro.cpp"
  13              		.text
  14              	.Ltext0:
  15              		.cfi_sections	.debug_frame
  16              		.section	.text._Z5scalefffff,"ax",%progbits
  17              		.align	1
  18              		.p2align 2,,3
  19              		.global	_Z5scalefffff
  20              		.arch armv7e-m
  21              		.syntax unified
  22              		.thumb
  23              		.thumb_func
  24              		.fpu fpv5-d16
  26              	_Z5scalefffff:
  27              	.LVL0:
  28              	.LFB4772:
  29              		.file 1 "Dattorro.cpp"
   1:Dattorro.cpp  **** #include "Dattorro.hpp"
   2:Dattorro.cpp  **** #include <algorithm>
   3:Dattorro.cpp  **** 
   4:Dattorro.cpp  **** float scale(float a, float inMin, float inMax, float outMin, float outMax) {
  30              		.loc 1 4 76 view -0
  31              		.cfi_startproc
  32              		@ args = 0, pretend = 0, frame = 0
  33              		@ frame_needed = 0, uses_anonymous_args = 0
  34              		@ link register save eliminated.
   5:Dattorro.cpp  ****     return (a - inMin)/(inMax - inMin) * (outMax - outMin) + outMin;
  35              		.loc 1 5 5 view .LVU1
  36              		.loc 1 5 15 is_stmt 0 view .LVU2
  37 0000 70EE607A 		vsub.f32	s15, s0, s1
  38              		.loc 1 5 31 view .LVU3
  39 0004 71EE600A 		vsub.f32	s1, s2, s1
  40              	.LVL1:
  41              		.loc 1 5 50 view .LVU4
  42 0008 32EE612A 		vsub.f32	s4, s4, s3
  43              	.LVL2:
  44              		.loc 1 5 23 view .LVU5
  45 000c 87EEA07A 		vdiv.f32	s14, s15, s1
   6:Dattorro.cpp  **** }
  46              		.loc 1 6 1 view .LVU6
  47 0010 E2EE071A 		vfma.f32	s3, s4, s14
  48              	.LVL3:
  49              		.loc 1 6 1 view .LVU7
  50 0014 B0EE610A 		vmov.f32	s0, s3
  51              	.LVL4:
  52              		.loc 1 6 1 view .LVU8
ARM GAS  C:\Users\digit\AppData\Local\Temp\ccMK4Fcw.s 			page 2


  53 0018 7047     		bx	lr
  54              		.cfi_endproc
  55              	.LFE4772:
  57 001a 00BF     		.section	.text._ZN16Dattorro1997Tank6freezeEb,"ax",%progbits
  58              		.align	1
  59              		.p2align 2,,3
  60              		.global	_ZN16Dattorro1997Tank6freezeEb
  61              		.syntax unified
  62              		.thumb
  63              		.thumb_func
  64              		.fpu fpv5-d16
  66              	_ZN16Dattorro1997Tank6freezeEb:
  67              	.LVL5:
  68              	.LFB4777:
   7:Dattorro.cpp  **** 
   8:Dattorro.cpp  **** Dattorro1997Tank::Dattorro1997Tank(const float initSampleRate,
   9:Dattorro.cpp  ****                                    const float initMaxLfoDepth,
  10:Dattorro.cpp  ****                                    const float initMaxTimeScale) :
  11:Dattorro.cpp  ****     maxTimeScale(initMaxTimeScale) 
  12:Dattorro.cpp  **** {
  13:Dattorro.cpp  ****     timePadding = initMaxLfoDepth;
  14:Dattorro.cpp  ****     setSampleRate(initSampleRate);
  15:Dattorro.cpp  **** 
  16:Dattorro.cpp  ****     leftOutDCBlock.setCutoffFreq(20.0);
  17:Dattorro.cpp  ****     rightOutDCBlock.setCutoffFreq(20.0);
  18:Dattorro.cpp  **** 
  19:Dattorro.cpp  ****     lfo1.setFrequency(lfo1Freq);
  20:Dattorro.cpp  ****     lfo2.setFrequency(lfo2Freq);
  21:Dattorro.cpp  ****     lfo3.setFrequency(lfo3Freq);
  22:Dattorro.cpp  ****     lfo4.setFrequency(lfo4Freq);
  23:Dattorro.cpp  **** 
  24:Dattorro.cpp  ****     lfo2.phase = 0.25;
  25:Dattorro.cpp  ****     lfo3.phase = 0.5;
  26:Dattorro.cpp  ****     lfo4.phase = 0.75;
  27:Dattorro.cpp  **** 
  28:Dattorro.cpp  ****     lfo1.setRevPoint(0.5);
  29:Dattorro.cpp  ****     lfo2.setRevPoint(0.5);
  30:Dattorro.cpp  ****     lfo3.setRevPoint(0.5);
  31:Dattorro.cpp  ****     lfo4.setRevPoint(0.5);
  32:Dattorro.cpp  **** }
  33:Dattorro.cpp  **** 
  34:Dattorro.cpp  **** void Dattorro1997Tank::process(const float leftIn, const float rightIn,
  35:Dattorro.cpp  ****                                float* leftOut, float* rightOut) {
  36:Dattorro.cpp  ****     tickApfModulation();
  37:Dattorro.cpp  **** 
  38:Dattorro.cpp  ****     decay = frozen ? 1.0 : decayParam;
  39:Dattorro.cpp  **** 
  40:Dattorro.cpp  ****     leftSum += leftIn;
  41:Dattorro.cpp  ****     rightSum += rightIn;
  42:Dattorro.cpp  **** 
  43:Dattorro.cpp  ****     leftApf1.input = leftSum;
  44:Dattorro.cpp  ****     leftDelay1.input = leftApf1.process();
  45:Dattorro.cpp  ****     leftDelay1.process();
  46:Dattorro.cpp  ****     leftHighCutFilter.input = leftDelay1.output;
  47:Dattorro.cpp  ****     leftLowCutFilter.input = leftHighCutFilter.process();
  48:Dattorro.cpp  ****     leftApf2.input = (leftDelay1.output * (1.0 - fade) + leftLowCutFilter.process() * fade) * decay
  49:Dattorro.cpp  ****     leftDelay2.input = leftApf2.process();
ARM GAS  C:\Users\digit\AppData\Local\Temp\ccMK4Fcw.s 			page 3


  50:Dattorro.cpp  ****     leftDelay2.process();
  51:Dattorro.cpp  **** 
  52:Dattorro.cpp  ****     rightApf1.input = rightSum;
  53:Dattorro.cpp  ****     rightDelay1.input = rightApf1.process();
  54:Dattorro.cpp  ****     rightDelay1.process();
  55:Dattorro.cpp  ****     rightHighCutFilter.input = rightDelay1.output;
  56:Dattorro.cpp  ****     rightLowCutFilter.input =  rightHighCutFilter.process();
  57:Dattorro.cpp  ****     rightApf2.input = (rightDelay1.output * (1.0 - fade) + rightLowCutFilter.process() * fade) * de
  58:Dattorro.cpp  ****     rightDelay2.input = rightApf2.process();
  59:Dattorro.cpp  ****     rightDelay2.process();
  60:Dattorro.cpp  **** 
  61:Dattorro.cpp  ****     rightSum = leftDelay2.output * decay;
  62:Dattorro.cpp  ****     leftSum = rightDelay2.output * decay;
  63:Dattorro.cpp  **** 
  64:Dattorro.cpp  ****     leftOutDCBlock.input = leftApf1.output;
  65:Dattorro.cpp  ****     leftOutDCBlock.input += leftDelay1.tap(scaledOutputTaps[L_DELAY_1_L_TAP_1]);
  66:Dattorro.cpp  ****     leftOutDCBlock.input += leftDelay1.tap(scaledOutputTaps[L_DELAY_1_L_TAP_2]);
  67:Dattorro.cpp  ****     leftOutDCBlock.input -= leftApf2.delay.tap(scaledOutputTaps[L_APF_2_L_TAP]);
  68:Dattorro.cpp  ****     leftOutDCBlock.input += leftDelay2.tap(scaledOutputTaps[L_DELAY_2_L_TAP]);
  69:Dattorro.cpp  ****     leftOutDCBlock.input -= rightDelay1.tap(scaledOutputTaps[R_DELAY_1_L_TAP]);
  70:Dattorro.cpp  ****     leftOutDCBlock.input -= rightApf2.delay.tap(scaledOutputTaps[R_APF_2_L_TAP]);
  71:Dattorro.cpp  ****     leftOutDCBlock.input -= rightDelay2.tap(scaledOutputTaps[R_DELAY_2_L_TAP]);
  72:Dattorro.cpp  **** 
  73:Dattorro.cpp  ****     rightOutDCBlock.input = rightApf1.output;
  74:Dattorro.cpp  ****     rightOutDCBlock.input += rightDelay1.tap(scaledOutputTaps[R_DELAY_1_R_TAP_1]);
  75:Dattorro.cpp  ****     rightOutDCBlock.input += rightDelay1.tap(scaledOutputTaps[R_DELAY_1_R_TAP_2]);
  76:Dattorro.cpp  ****     rightOutDCBlock.input -= rightApf2.delay.tap(scaledOutputTaps[R_APF_2_R_TAP]);
  77:Dattorro.cpp  ****     rightOutDCBlock.input += rightDelay2.tap(scaledOutputTaps[R_DELAY_2_R_TAP]);
  78:Dattorro.cpp  ****     rightOutDCBlock.input -= leftDelay1.tap(scaledOutputTaps[L_DELAY_1_R_TAP]);
  79:Dattorro.cpp  ****     rightOutDCBlock.input -= leftApf2.delay.tap(scaledOutputTaps[L_APF_2_R_TAP]);
  80:Dattorro.cpp  ****     rightOutDCBlock.input -= leftDelay2.tap(scaledOutputTaps[L_DELAY_2_R_TAP]);
  81:Dattorro.cpp  **** 
  82:Dattorro.cpp  ****     *leftOut = leftOutDCBlock.process() * 0.5;
  83:Dattorro.cpp  ****     *rightOut = rightOutDCBlock.process() * 0.5;
  84:Dattorro.cpp  **** 
  85:Dattorro.cpp  ****     fade += fadeStep * fadeDir;
  86:Dattorro.cpp  ****     fade = (fade < 0.0) ? 0.0 : ((fade > 1.0) ? 1.0 : fade);
  87:Dattorro.cpp  **** }
  88:Dattorro.cpp  **** 
  89:Dattorro.cpp  **** void Dattorro1997Tank::freeze(bool freezeFlag) {
  69              		.loc 1 89 48 is_stmt 1 view -0
  70              		.cfi_startproc
  71              		@ args = 0, pretend = 0, frame = 0
  72              		@ frame_needed = 0, uses_anonymous_args = 0
  73              		@ link register save eliminated.
  90:Dattorro.cpp  ****     frozen = freezeFlag;
  74              		.loc 1 90 5 view .LVU10
  75              		.loc 1 90 12 is_stmt 0 view .LVU11
  76 0000 80F88010 		strb	r1, [r0, #128]
  91:Dattorro.cpp  ****     if (frozen) {
  77              		.loc 1 91 5 is_stmt 1 view .LVU12
  78 0004 31B1     		cbz	r1, .L4
  92:Dattorro.cpp  ****         fadeDir = -1.0;
  79              		.loc 1 92 9 view .LVU13
  80              		.loc 1 92 17 is_stmt 0 view .LVU14
  81 0006 074A     		ldr	r2, .L6
  93:Dattorro.cpp  ****         decay = 1.0;
ARM GAS  C:\Users\digit\AppData\Local\Temp\ccMK4Fcw.s 			page 4


  82              		.loc 1 93 15 view .LVU15
  83 0008 4FF07E53 		mov	r3, #1065353216
  92:Dattorro.cpp  ****         fadeDir = -1.0;
  84              		.loc 1 92 17 view .LVU16
  85 000c C0F89020 		str	r2, [r0, #144]	@ float
  86              		.loc 1 93 9 is_stmt 1 view .LVU17
  87              		.loc 1 93 15 is_stmt 0 view .LVU18
  88 0010 8367     		str	r3, [r0, #120]	@ float
  89 0012 7047     		bx	lr
  90              	.L4:
  94:Dattorro.cpp  ****     }
  95:Dattorro.cpp  ****     else {
  96:Dattorro.cpp  ****         fadeDir = 1.0;
  91              		.loc 1 96 9 is_stmt 1 view .LVU19
  92              		.loc 1 96 17 is_stmt 0 view .LVU20
  93 0014 4FF07E53 		mov	r3, #1065353216
  97:Dattorro.cpp  ****         decay = decayParam;
  94              		.loc 1 97 15 view .LVU21
  95 0018 426F     		ldr	r2, [r0, #116]	@ float
  96:Dattorro.cpp  ****         decay = decayParam;
  96              		.loc 1 96 17 view .LVU22
  97 001a C0F89030 		str	r3, [r0, #144]	@ float
  98              		.loc 1 97 9 is_stmt 1 view .LVU23
  99              		.loc 1 97 15 is_stmt 0 view .LVU24
 100 001e 8267     		str	r2, [r0, #120]	@ float
  98:Dattorro.cpp  ****     }
  99:Dattorro.cpp  **** }
 101              		.loc 1 99 1 view .LVU25
 102 0020 7047     		bx	lr
 103              	.L7:
 104 0022 00BF     		.align	2
 105              	.L6:
 106 0024 000080BF 		.word	-1082130432
 107              		.cfi_endproc
 108              	.LFE4777:
 110              		.section	.text._ZN16Dattorro1997Tank8setDecayEf,"ax",%progbits
 111              		.align	1
 112              		.p2align 2,,3
 113              		.global	_ZN16Dattorro1997Tank8setDecayEf
 114              		.syntax unified
 115              		.thumb
 116              		.thumb_func
 117              		.fpu fpv5-d16
 119              	_ZN16Dattorro1997Tank8setDecayEf:
 120              	.LVL6:
 121              	.LFB4780:
 100:Dattorro.cpp  **** 
 101:Dattorro.cpp  **** void Dattorro1997Tank::setSampleRate(const float newSampleRate) {
 102:Dattorro.cpp  ****     sampleRate = newSampleRate;
 103:Dattorro.cpp  ****     sampleRate = sampleRate > maxSampleRate ? maxSampleRate : sampleRate;
 104:Dattorro.cpp  ****     sampleRate = sampleRate < 1.f ? 1.f : sampleRate;
 105:Dattorro.cpp  ****     sampleRateScale = sampleRate / dattorroSampleRate;
 106:Dattorro.cpp  **** 
 107:Dattorro.cpp  ****     fadeStep = 1.0 / sampleRate;
 108:Dattorro.cpp  **** 
 109:Dattorro.cpp  ****     leftOutDCBlock.setSampleRate(sampleRate);
 110:Dattorro.cpp  ****     rightOutDCBlock.setSampleRate(sampleRate);
ARM GAS  C:\Users\digit\AppData\Local\Temp\ccMK4Fcw.s 			page 5


 111:Dattorro.cpp  **** 
 112:Dattorro.cpp  ****     rescaleTapTimes();
 113:Dattorro.cpp  ****     setTimeScale(timeScale);
 114:Dattorro.cpp  ****     initialiseDelaysAndApfs();
 115:Dattorro.cpp  ****     clear();
 116:Dattorro.cpp  **** }
 117:Dattorro.cpp  **** 
 118:Dattorro.cpp  **** void Dattorro1997Tank::setTimeScale(const float newTimeScale) {
 119:Dattorro.cpp  ****     // timeScale = newTimeScale;
 120:Dattorro.cpp  ****     timeScale = newTimeScale < minTimeScale ? minTimeScale : newTimeScale;
 121:Dattorro.cpp  **** 
 122:Dattorro.cpp  ****     rescaleApfAndDelayTimes();
 123:Dattorro.cpp  **** }
 124:Dattorro.cpp  **** 
 125:Dattorro.cpp  **** void Dattorro1997Tank::setDecay(const float newDecay) {
 122              		.loc 1 125 55 is_stmt 1 view -0
 123              		.cfi_startproc
 124              		@ args = 0, pretend = 0, frame = 0
 125              		@ frame_needed = 0, uses_anonymous_args = 0
 126              		@ link register save eliminated.
 126:Dattorro.cpp  ****     decayParam = (float)(newDecay > 1.0 ? 1.0 :
 127              		.loc 1 126 5 view .LVU27
 128              		.loc 1 126 18 is_stmt 0 view .LVU28
 129 0000 F7EE007A 		vmov.f32	s15, #1.0e+0
 130 0004 B4EEE70A 		vcmpe.f32	s0, s15
 131 0008 F1EE10FA 		vmrs	APSR_nzcv, FPSCR
 132 000c 04DD     		ble	.L12
 133 000e B0EE670A 		vmov.f32	s0, s15
 134              	.LVL7:
 135              	.L9:
 136              		.loc 1 126 16 discriminator 8 view .LVU29
 137 0012 80ED1D0A 		vstr.32	s0, [r0, #116]
 127:Dattorro.cpp  ****                          (newDecay < 0.0 ? 0.0 : newDecay));
 128:Dattorro.cpp  **** }
 138              		.loc 1 128 1 discriminator 8 view .LVU30
 139 0016 7047     		bx	lr
 140              	.LVL8:
 141              	.L12:
 126:Dattorro.cpp  ****     decayParam = (float)(newDecay > 1.0 ? 1.0 :
 142              		.loc 1 126 18 discriminator 2 view .LVU31
 143 0018 B5EEC00A 		vcmpe.f32	s0, #0
 144 001c F1EE10FA 		vmrs	APSR_nzcv, FPSCR
 145 0020 F7D5     		bpl	.L9
 126:Dattorro.cpp  ****     decayParam = (float)(newDecay > 1.0 ? 1.0 :
 146              		.loc 1 126 18 view .LVU32
 147 0022 9FED020A 		vldr.32	s0, .L13
 148              	.LVL9:
 126:Dattorro.cpp  ****     decayParam = (float)(newDecay > 1.0 ? 1.0 :
 149              		.loc 1 126 16 view .LVU33
 150 0026 80ED1D0A 		vstr.32	s0, [r0, #116]
 151              		.loc 1 128 1 view .LVU34
 152 002a 7047     		bx	lr
 153              	.L14:
 154              		.align	2
 155              	.L13:
 156 002c 00000000 		.word	0
 157              		.cfi_endproc
ARM GAS  C:\Users\digit\AppData\Local\Temp\ccMK4Fcw.s 			page 6


 158              	.LFE4780:
 160              		.section	.text._ZN16Dattorro1997Tank11setModSpeedEf,"ax",%progbits
 161              		.align	1
 162              		.p2align 2,,3
 163              		.global	_ZN16Dattorro1997Tank11setModSpeedEf
 164              		.syntax unified
 165              		.thumb
 166              		.thumb_func
 167              		.fpu fpv5-d16
 169              	_ZN16Dattorro1997Tank11setModSpeedEf:
 170              	.LVL10:
 171              	.LFB4781:
 129:Dattorro.cpp  **** 
 130:Dattorro.cpp  **** void Dattorro1997Tank::setModSpeed(const float newModSpeed) {
 172              		.loc 1 130 61 is_stmt 1 view -0
 173              		.cfi_startproc
 174              		@ args = 0, pretend = 0, frame = 0
 175              		@ frame_needed = 0, uses_anonymous_args = 0
 176              		@ link register save eliminated.
 131:Dattorro.cpp  ****     lfo1.setFrequency(lfo1Freq * newModSpeed);
 177              		.loc 1 131 5 view .LVU36
 178              		.loc 1 131 22 is_stmt 0 view .LVU37
 179 0000 DFED267A 		vldr.32	s15, .L20
 180              	.LBB334:
 181              	.LBB335:
 182              		.file 2 "dsp/modulation/LFO.hpp"
   1:dsp/modulation/LFO.hpp **** #ifndef DSJ_LFO_HPP
   2:dsp/modulation/LFO.hpp **** #define DSJ_LFO_HPP
   3:dsp/modulation/LFO.hpp **** #include <vector>
   4:dsp/modulation/LFO.hpp **** #include <cmath>
   5:dsp/modulation/LFO.hpp **** #include <cstdint>
   6:dsp/modulation/LFO.hpp **** 
   7:dsp/modulation/LFO.hpp **** #ifndef  M_PI
   8:dsp/modulation/LFO.hpp **** #define M_PI		3.14159265358979323846
   9:dsp/modulation/LFO.hpp **** #endif
  10:dsp/modulation/LFO.hpp **** 
  11:dsp/modulation/LFO.hpp **** class LFO {
  12:dsp/modulation/LFO.hpp **** public:
  13:dsp/modulation/LFO.hpp ****     float output = 0.0;
  14:dsp/modulation/LFO.hpp ****     float phase = 0.0;
  15:dsp/modulation/LFO.hpp **** 
  16:dsp/modulation/LFO.hpp ****     LFO() {
  17:dsp/modulation/LFO.hpp ****         _frequency = 1.0;
  18:dsp/modulation/LFO.hpp ****         _sampleRate = 32000.0;
  19:dsp/modulation/LFO.hpp ****         _stepSize = _frequency * (float)kTableLength / _sampleRate;
  20:dsp/modulation/LFO.hpp ****         for(auto i = 0; i < kTableLength; ++i) {
  21:dsp/modulation/LFO.hpp ****             _sine.push_back(sin(2.0 * M_PI * (float)i / (float)kTableLength));
  22:dsp/modulation/LFO.hpp ****         }
  23:dsp/modulation/LFO.hpp ****         _phasor = 0.0;
  24:dsp/modulation/LFO.hpp ****     }
  25:dsp/modulation/LFO.hpp **** 
  26:dsp/modulation/LFO.hpp ****     float process() {
  27:dsp/modulation/LFO.hpp ****         _plusPhase = _phasor + phase * kTableLength;
  28:dsp/modulation/LFO.hpp ****         if(_plusPhase < 0.0) {
  29:dsp/modulation/LFO.hpp ****             _plusPhase += kTableLength;
  30:dsp/modulation/LFO.hpp ****         }
  31:dsp/modulation/LFO.hpp ****         else if(_plusPhase >= kTableLength) {
ARM GAS  C:\Users\digit\AppData\Local\Temp\ccMK4Fcw.s 			page 7


  32:dsp/modulation/LFO.hpp ****             _plusPhase -= kTableLength;
  33:dsp/modulation/LFO.hpp ****         }
  34:dsp/modulation/LFO.hpp **** 
  35:dsp/modulation/LFO.hpp ****         _a = (int)_plusPhase;
  36:dsp/modulation/LFO.hpp ****         _frac = _plusPhase - _a;
  37:dsp/modulation/LFO.hpp ****         _b = _a + 1.0;
  38:dsp/modulation/LFO.hpp ****         _b %= kTableLength;
  39:dsp/modulation/LFO.hpp ****         output = _sine[_a] * (1.0 - _frac) + _sine[_b] * _frac;
  40:dsp/modulation/LFO.hpp **** 
  41:dsp/modulation/LFO.hpp ****         _phasor += _stepSize;
  42:dsp/modulation/LFO.hpp ****         if(_phasor >= kTableLength) {
  43:dsp/modulation/LFO.hpp ****             _phasor -= kTableLength;
  44:dsp/modulation/LFO.hpp ****         }
  45:dsp/modulation/LFO.hpp ****         return output;
  46:dsp/modulation/LFO.hpp ****     }
  47:dsp/modulation/LFO.hpp **** 
  48:dsp/modulation/LFO.hpp ****     void setFrequency(float frequency) {
  49:dsp/modulation/LFO.hpp ****         _frequency = frequency;
  50:dsp/modulation/LFO.hpp ****         calcStepSize();
  51:dsp/modulation/LFO.hpp ****     }
  52:dsp/modulation/LFO.hpp ****     void setSamplerate(float sampleRate) {
  53:dsp/modulation/LFO.hpp ****         _sampleRate = sampleRate;
  54:dsp/modulation/LFO.hpp ****         calcStepSize();
  55:dsp/modulation/LFO.hpp ****     }
  56:dsp/modulation/LFO.hpp **** private:
  57:dsp/modulation/LFO.hpp ****     float _frequency;
  58:dsp/modulation/LFO.hpp ****     float _sampleRate;
  59:dsp/modulation/LFO.hpp ****     float _stepSize;
  60:dsp/modulation/LFO.hpp ****     float _phasor;
  61:dsp/modulation/LFO.hpp ****     float _plusPhase;
  62:dsp/modulation/LFO.hpp ****     int _a, _b;
  63:dsp/modulation/LFO.hpp ****     float _frac;
  64:dsp/modulation/LFO.hpp ****     const int kTableLength = 4096;
  65:dsp/modulation/LFO.hpp ****     std::vector<float> _sine;
  66:dsp/modulation/LFO.hpp **** 
  67:dsp/modulation/LFO.hpp ****     void calcStepSize() {
  68:dsp/modulation/LFO.hpp ****         _stepSize = _frequency * (float)kTableLength / _sampleRate;
  69:dsp/modulation/LFO.hpp ****     }
  70:dsp/modulation/LFO.hpp **** };
  71:dsp/modulation/LFO.hpp **** 
  72:dsp/modulation/LFO.hpp **** class TriSawLFO {
  73:dsp/modulation/LFO.hpp **** public:
  74:dsp/modulation/LFO.hpp ****     TriSawLFO(float sampleRate = 32000.0, float frequency = 1.0) {
  75:dsp/modulation/LFO.hpp ****         phase = 0.0;
  76:dsp/modulation/LFO.hpp ****         _output = 0.0;
  77:dsp/modulation/LFO.hpp ****         _sampleRate = sampleRate;
  78:dsp/modulation/LFO.hpp ****         _step = 0.0;
  79:dsp/modulation/LFO.hpp ****         _rising = true;
  80:dsp/modulation/LFO.hpp ****         setFrequency(frequency);
  81:dsp/modulation/LFO.hpp ****         setRevPoint(0.5);
  82:dsp/modulation/LFO.hpp ****     }
  83:dsp/modulation/LFO.hpp **** 
  84:dsp/modulation/LFO.hpp ****     float process() {
  85:dsp/modulation/LFO.hpp ****         if(_step > 1.0) {
  86:dsp/modulation/LFO.hpp ****             _step -= 1.0;
  87:dsp/modulation/LFO.hpp ****             _rising = true;
  88:dsp/modulation/LFO.hpp ****         }
ARM GAS  C:\Users\digit\AppData\Local\Temp\ccMK4Fcw.s 			page 8


  89:dsp/modulation/LFO.hpp **** 
  90:dsp/modulation/LFO.hpp ****         if(_step >= _revPoint) {
  91:dsp/modulation/LFO.hpp ****             _rising = false;
  92:dsp/modulation/LFO.hpp ****         }
  93:dsp/modulation/LFO.hpp **** 
  94:dsp/modulation/LFO.hpp ****         if(_rising) {
  95:dsp/modulation/LFO.hpp ****             _output = _step * _riseRate;
  96:dsp/modulation/LFO.hpp ****         }
  97:dsp/modulation/LFO.hpp ****         else {
  98:dsp/modulation/LFO.hpp ****             _output = _step * _fallRate - _fallRate;
  99:dsp/modulation/LFO.hpp ****         }
 100:dsp/modulation/LFO.hpp **** 
 101:dsp/modulation/LFO.hpp ****         _step += _stepSize;
 102:dsp/modulation/LFO.hpp ****         _output *= 2.0;
 103:dsp/modulation/LFO.hpp ****         _output -= 1.0;
 104:dsp/modulation/LFO.hpp ****         return _output;
 105:dsp/modulation/LFO.hpp ****     }
 106:dsp/modulation/LFO.hpp **** 
 107:dsp/modulation/LFO.hpp ****     void setFrequency(float frequency) {
 108:dsp/modulation/LFO.hpp ****         if (frequency == _frequency) {
 183              		.loc 2 108 9 view .LVU38
 184 0004 90ED287A 		vldr.32	s14, [r0, #160]
 185              	.LBE335:
 186              	.LBE334:
 187              		.loc 1 131 22 view .LVU39
 188 0008 60EE277A 		vmul.f32	s15, s0, s15
 189              	.LVL11:
 190              	.LBB341:
 191              	.LBI334:
 107:dsp/modulation/LFO.hpp ****         if (frequency == _frequency) {
 192              		.loc 2 107 10 is_stmt 1 view .LVU40
 193              	.LBB340:
 194              		.loc 2 108 9 view .LVU41
 195 000c F4EE477A 		vcmp.f32	s15, s14
 196 0010 F1EE10FA 		vmrs	APSR_nzcv, FPSCR
 197 0014 07D0     		beq	.L16
 109:dsp/modulation/LFO.hpp ****             return;
 110:dsp/modulation/LFO.hpp ****         }
 111:dsp/modulation/LFO.hpp ****         _frequency = frequency;
 198              		.loc 2 111 9 view .LVU42
 199              	.LBB336:
 200              	.LBB337:
 112:dsp/modulation/LFO.hpp ****         calcStepSize();
 113:dsp/modulation/LFO.hpp ****     }
 114:dsp/modulation/LFO.hpp **** 
 115:dsp/modulation/LFO.hpp ****     void setRevPoint(float revPoint) {
 116:dsp/modulation/LFO.hpp ****         _revPoint = revPoint;
 117:dsp/modulation/LFO.hpp ****         if(_revPoint < 0.0001) {
 118:dsp/modulation/LFO.hpp ****             _revPoint = 0.0001;
 119:dsp/modulation/LFO.hpp ****         }
 120:dsp/modulation/LFO.hpp ****         if(_revPoint > 0.999) {
 121:dsp/modulation/LFO.hpp ****             _revPoint = 0.999;
 122:dsp/modulation/LFO.hpp ****         }
 123:dsp/modulation/LFO.hpp **** 
 124:dsp/modulation/LFO.hpp ****         _riseRate = 1.0 / _revPoint;
 125:dsp/modulation/LFO.hpp ****         _fallRate = -1.0 / (1.0 - _revPoint);
 126:dsp/modulation/LFO.hpp ****     }
ARM GAS  C:\Users\digit\AppData\Local\Temp\ccMK4Fcw.s 			page 9


 127:dsp/modulation/LFO.hpp **** 
 128:dsp/modulation/LFO.hpp ****     void setSamplerate(float sampleRate) {
 129:dsp/modulation/LFO.hpp ****         _sampleRate = sampleRate;
 130:dsp/modulation/LFO.hpp ****         calcStepSize();
 131:dsp/modulation/LFO.hpp ****     }
 132:dsp/modulation/LFO.hpp **** 
 133:dsp/modulation/LFO.hpp ****     float getOutput() const {
 134:dsp/modulation/LFO.hpp ****         return _output;
 135:dsp/modulation/LFO.hpp ****     }
 136:dsp/modulation/LFO.hpp **** 
 137:dsp/modulation/LFO.hpp ****     float phase;
 138:dsp/modulation/LFO.hpp **** 
 139:dsp/modulation/LFO.hpp **** private:
 140:dsp/modulation/LFO.hpp ****     float _output;
 141:dsp/modulation/LFO.hpp ****     float _sampleRate;
 142:dsp/modulation/LFO.hpp ****     float _frequency = 0.0;
 143:dsp/modulation/LFO.hpp ****     float _revPoint;
 144:dsp/modulation/LFO.hpp ****     float _riseRate;
 145:dsp/modulation/LFO.hpp ****     float _fallRate;
 146:dsp/modulation/LFO.hpp ****     float _step;
 147:dsp/modulation/LFO.hpp ****     float _stepSize;
 148:dsp/modulation/LFO.hpp ****     bool _rising;
 149:dsp/modulation/LFO.hpp **** 
 150:dsp/modulation/LFO.hpp ****     void calcStepSize() {
 151:dsp/modulation/LFO.hpp ****         _stepSize = _frequency / _sampleRate;
 201              		.loc 2 151 32 is_stmt 0 view .LVU43
 202 0016 D0ED276A 		vldr.32	s13, [r0, #156]
 203              	.LBE337:
 204              	.LBE336:
 111:dsp/modulation/LFO.hpp ****         calcStepSize();
 205              		.loc 2 111 20 view .LVU44
 206 001a C0ED287A 		vstr.32	s15, [r0, #160]
 112:dsp/modulation/LFO.hpp ****         calcStepSize();
 207              		.loc 2 112 9 is_stmt 1 view .LVU45
 208              	.LVL12:
 209              	.LBB339:
 210              	.LBI336:
 150:dsp/modulation/LFO.hpp ****         _stepSize = _frequency / _sampleRate;
 211              		.loc 2 150 10 view .LVU46
 212              	.LBB338:
 213              		.loc 2 151 9 view .LVU47
 214              		.loc 2 151 32 is_stmt 0 view .LVU48
 215 001e 87EEA67A 		vdiv.f32	s14, s15, s13
 216              		.loc 2 151 19 view .LVU49
 217 0022 80ED2D7A 		vstr.32	s14, [r0, #180]
 218              	.LVL13:
 219              	.L16:
 220              		.loc 2 151 19 view .LVU50
 221              	.LBE338:
 222              	.LBE339:
 223              	.LBE340:
 224              	.LBE341:
 132:Dattorro.cpp  ****     lfo2.setFrequency(lfo2Freq * newModSpeed);
 225              		.loc 1 132 5 is_stmt 1 view .LVU51
 226              		.loc 1 132 22 is_stmt 0 view .LVU52
 227 0026 DFED1E7A 		vldr.32	s15, .L20+4
 228              	.LBB342:
ARM GAS  C:\Users\digit\AppData\Local\Temp\ccMK4Fcw.s 			page 10


 229              	.LBB343:
 108:dsp/modulation/LFO.hpp ****             return;
 230              		.loc 2 108 9 view .LVU53
 231 002a 90ED327A 		vldr.32	s14, [r0, #200]
 232              	.LBE343:
 233              	.LBE342:
 234              		.loc 1 132 22 view .LVU54
 235 002e 60EE277A 		vmul.f32	s15, s0, s15
 236              	.LVL14:
 237              	.LBB349:
 238              	.LBI342:
 107:dsp/modulation/LFO.hpp ****         if (frequency == _frequency) {
 239              		.loc 2 107 10 is_stmt 1 view .LVU55
 240              	.LBB348:
 108:dsp/modulation/LFO.hpp ****             return;
 241              		.loc 2 108 9 view .LVU56
 242 0032 F4EE477A 		vcmp.f32	s15, s14
 243 0036 F1EE10FA 		vmrs	APSR_nzcv, FPSCR
 244 003a 07D0     		beq	.L17
 111:dsp/modulation/LFO.hpp ****         calcStepSize();
 245              		.loc 2 111 9 view .LVU57
 246              	.LBB344:
 247              	.LBB345:
 248              		.loc 2 151 32 is_stmt 0 view .LVU58
 249 003c D0ED316A 		vldr.32	s13, [r0, #196]
 250              	.LBE345:
 251              	.LBE344:
 111:dsp/modulation/LFO.hpp ****         calcStepSize();
 252              		.loc 2 111 20 view .LVU59
 253 0040 C0ED327A 		vstr.32	s15, [r0, #200]
 112:dsp/modulation/LFO.hpp ****     }
 254              		.loc 2 112 9 is_stmt 1 view .LVU60
 255              	.LVL15:
 256              	.LBB347:
 257              	.LBI344:
 150:dsp/modulation/LFO.hpp ****         _stepSize = _frequency / _sampleRate;
 258              		.loc 2 150 10 view .LVU61
 259              	.LBB346:
 260              		.loc 2 151 9 view .LVU62
 261              		.loc 2 151 32 is_stmt 0 view .LVU63
 262 0044 87EEA67A 		vdiv.f32	s14, s15, s13
 263              		.loc 2 151 19 view .LVU64
 264 0048 80ED377A 		vstr.32	s14, [r0, #220]
 265              	.LVL16:
 266              	.L17:
 267              		.loc 2 151 19 view .LVU65
 268              	.LBE346:
 269              	.LBE347:
 270              	.LBE348:
 271              	.LBE349:
 133:Dattorro.cpp  ****     lfo3.setFrequency(lfo3Freq * newModSpeed);
 272              		.loc 1 133 5 is_stmt 1 view .LVU66
 273              		.loc 1 133 22 is_stmt 0 view .LVU67
 274 004c DFED157A 		vldr.32	s15, .L20+8
 275              	.LBB350:
 276              	.LBB351:
 108:dsp/modulation/LFO.hpp ****             return;
ARM GAS  C:\Users\digit\AppData\Local\Temp\ccMK4Fcw.s 			page 11


 277              		.loc 2 108 9 view .LVU68
 278 0050 90ED3C7A 		vldr.32	s14, [r0, #240]
 279              	.LBE351:
 280              	.LBE350:
 281              		.loc 1 133 22 view .LVU69
 282 0054 60EE277A 		vmul.f32	s15, s0, s15
 283              	.LVL17:
 284              	.LBB357:
 285              	.LBI350:
 107:dsp/modulation/LFO.hpp ****         if (frequency == _frequency) {
 286              		.loc 2 107 10 is_stmt 1 view .LVU70
 287              	.LBB356:
 108:dsp/modulation/LFO.hpp ****             return;
 288              		.loc 2 108 9 view .LVU71
 289 0058 F4EE477A 		vcmp.f32	s15, s14
 290 005c F1EE10FA 		vmrs	APSR_nzcv, FPSCR
 291 0060 07D0     		beq	.L18
 111:dsp/modulation/LFO.hpp ****         calcStepSize();
 292              		.loc 2 111 9 view .LVU72
 293              	.LBB352:
 294              	.LBB353:
 295              		.loc 2 151 32 is_stmt 0 view .LVU73
 296 0062 D0ED3B6A 		vldr.32	s13, [r0, #236]
 297              	.LBE353:
 298              	.LBE352:
 111:dsp/modulation/LFO.hpp ****         calcStepSize();
 299              		.loc 2 111 20 view .LVU74
 300 0066 C0ED3C7A 		vstr.32	s15, [r0, #240]
 112:dsp/modulation/LFO.hpp ****     }
 301              		.loc 2 112 9 is_stmt 1 view .LVU75
 302              	.LVL18:
 303              	.LBB355:
 304              	.LBI352:
 150:dsp/modulation/LFO.hpp ****         _stepSize = _frequency / _sampleRate;
 305              		.loc 2 150 10 view .LVU76
 306              	.LBB354:
 307              		.loc 2 151 9 view .LVU77
 308              		.loc 2 151 32 is_stmt 0 view .LVU78
 309 006a 87EEA67A 		vdiv.f32	s14, s15, s13
 310              		.loc 2 151 19 view .LVU79
 311 006e 80ED417A 		vstr.32	s14, [r0, #260]
 312              	.LVL19:
 313              	.L18:
 314              		.loc 2 151 19 view .LVU80
 315              	.LBE354:
 316              	.LBE355:
 317              	.LBE356:
 318              	.LBE357:
 134:Dattorro.cpp  ****     lfo4.setFrequency(lfo4Freq * newModSpeed);
 319              		.loc 1 134 5 is_stmt 1 view .LVU81
 320              		.loc 1 134 22 is_stmt 0 view .LVU82
 321 0072 9FED0D7A 		vldr.32	s14, .L20+12
 322              	.LBB358:
 323              	.LBB359:
 108:dsp/modulation/LFO.hpp ****             return;
 324              		.loc 2 108 9 view .LVU83
 325 0076 D0ED467A 		vldr.32	s15, [r0, #280]
ARM GAS  C:\Users\digit\AppData\Local\Temp\ccMK4Fcw.s 			page 12


 326              	.LBE359:
 327              	.LBE358:
 328              		.loc 1 134 22 view .LVU84
 329 007a 20EE070A 		vmul.f32	s0, s0, s14
 330              	.LVL20:
 331              	.LBB365:
 332              	.LBI358:
 107:dsp/modulation/LFO.hpp ****         if (frequency == _frequency) {
 333              		.loc 2 107 10 is_stmt 1 view .LVU85
 334              	.LBB364:
 108:dsp/modulation/LFO.hpp ****             return;
 335              		.loc 2 108 9 view .LVU86
 336 007e B4EE670A 		vcmp.f32	s0, s15
 337 0082 F1EE10FA 		vmrs	APSR_nzcv, FPSCR
 338 0086 07D0     		beq	.L15
 111:dsp/modulation/LFO.hpp ****         calcStepSize();
 339              		.loc 2 111 9 view .LVU87
 340              	.LBB360:
 341              	.LBB361:
 342              		.loc 2 151 32 is_stmt 0 view .LVU88
 343 0088 90ED457A 		vldr.32	s14, [r0, #276]
 344              	.LBE361:
 345              	.LBE360:
 111:dsp/modulation/LFO.hpp ****         calcStepSize();
 346              		.loc 2 111 20 view .LVU89
 347 008c 80ED460A 		vstr.32	s0, [r0, #280]
 112:dsp/modulation/LFO.hpp ****     }
 348              		.loc 2 112 9 is_stmt 1 view .LVU90
 349              	.LVL21:
 350              	.LBB363:
 351              	.LBI360:
 150:dsp/modulation/LFO.hpp ****         _stepSize = _frequency / _sampleRate;
 352              		.loc 2 150 10 view .LVU91
 353              	.LBB362:
 354              		.loc 2 151 9 view .LVU92
 355              		.loc 2 151 32 is_stmt 0 view .LVU93
 356 0090 C0EE077A 		vdiv.f32	s15, s0, s14
 357              		.loc 2 151 19 view .LVU94
 358 0094 C0ED4B7A 		vstr.32	s15, [r0, #300]
 359              	.LVL22:
 360              	.L15:
 361              		.loc 2 151 19 view .LVU95
 362              	.LBE362:
 363              	.LBE363:
 364              	.LBE364:
 365              	.LBE365:
 135:Dattorro.cpp  **** }
 366              		.loc 1 135 1 view .LVU96
 367 0098 7047     		bx	lr
 368              	.L21:
 369 009a 00BF     		.align	2
 370              	.L20:
 371 009c CDCCCC3D 		.word	1036831949
 372 00a0 9A99193E 		.word	1041865114
 373 00a4 8FC2F53D 		.word	1039516303
 374 00a8 EC51383E 		.word	1043878380
 375              		.cfi_endproc
ARM GAS  C:\Users\digit\AppData\Local\Temp\ccMK4Fcw.s 			page 13


 376              	.LFE4781:
 378              		.section	.text._ZN16Dattorro1997Tank11setModDepthEf,"ax",%progbits
 379              		.align	1
 380              		.p2align 2,,3
 381              		.global	_ZN16Dattorro1997Tank11setModDepthEf
 382              		.syntax unified
 383              		.thumb
 384              		.thumb_func
 385              		.fpu fpv5-d16
 387              	_ZN16Dattorro1997Tank11setModDepthEf:
 388              	.LVL23:
 389              	.LFB4782:
 136:Dattorro.cpp  **** 
 137:Dattorro.cpp  **** void Dattorro1997Tank::setModDepth(const float newModDepth) {
 390              		.loc 1 137 61 is_stmt 1 view -0
 391              		.cfi_startproc
 392              		@ args = 0, pretend = 0, frame = 0
 393              		@ frame_needed = 0, uses_anonymous_args = 0
 394              		@ link register save eliminated.
 138:Dattorro.cpp  ****     modDepth = newModDepth;
 395              		.loc 1 138 5 view .LVU98
 139:Dattorro.cpp  ****     lfoExcursion = newModDepth * lfoMaxExcursion * sampleRateScale;
 396              		.loc 1 139 32 is_stmt 0 view .LVU99
 397 0000 F3EE007A 		vmov.f32	s15, #1.6e+1
 398              		.loc 1 139 50 view .LVU100
 399 0004 90ED197A 		vldr.32	s14, [r0, #100]
 138:Dattorro.cpp  ****     modDepth = newModDepth;
 400              		.loc 1 138 14 view .LVU101
 401 0008 80ED1C0A 		vstr.32	s0, [r0, #112]
 402              		.loc 1 139 5 is_stmt 1 view .LVU102
 403              		.loc 1 139 32 is_stmt 0 view .LVU103
 404 000c 60EE277A 		vmul.f32	s15, s0, s15
 405              		.loc 1 139 50 view .LVU104
 406 0010 67EE877A 		vmul.f32	s15, s15, s14
 407              		.loc 1 139 18 view .LVU105
 408 0014 C0ED1F7A 		vstr.32	s15, [r0, #124]
 140:Dattorro.cpp  **** }
 409              		.loc 1 140 1 view .LVU106
 410 0018 7047     		bx	lr
 411              		.cfi_endproc
 412              	.LFE4782:
 414 001a 00BF     		.section	.text._ZN16Dattorro1997Tank11setModShapeEf,"ax",%progbits
 415              		.align	1
 416              		.p2align 2,,3
 417              		.global	_ZN16Dattorro1997Tank11setModShapeEf
 418              		.syntax unified
 419              		.thumb
 420              		.thumb_func
 421              		.fpu fpv5-d16
 423              	_ZN16Dattorro1997Tank11setModShapeEf:
 424              	.LVL24:
 425              	.LFB4783:
 141:Dattorro.cpp  **** 
 142:Dattorro.cpp  **** void Dattorro1997Tank::setModShape(const float shape) {
 426              		.loc 1 142 55 is_stmt 1 view -0
 427              		.cfi_startproc
 428              		@ args = 0, pretend = 0, frame = 0
ARM GAS  C:\Users\digit\AppData\Local\Temp\ccMK4Fcw.s 			page 14


 429              		@ frame_needed = 0, uses_anonymous_args = 0
 430              		@ link register save eliminated.
 431              	.LBB374:
 432              	.LBB375:
 117:dsp/modulation/LFO.hpp ****             _revPoint = 0.0001;
 433              		.loc 2 117 9 is_stmt 0 view .LVU108
 434 0000 9FED5B7B 		vldr.64	d7, .L46
 435              	.LBE375:
 436              	.LBE374:
 143:Dattorro.cpp  ****     lfo1.setRevPoint(shape);
 437              		.loc 1 143 5 is_stmt 1 view .LVU109
 438              	.LVL25:
 439              	.LBB382:
 440              	.LBI374:
 115:dsp/modulation/LFO.hpp ****         _revPoint = revPoint;
 441              		.loc 2 115 10 view .LVU110
 442              	.LBB376:
 116:dsp/modulation/LFO.hpp ****         if(_revPoint < 0.0001) {
 443              		.loc 2 116 9 view .LVU111
 117:dsp/modulation/LFO.hpp ****             _revPoint = 0.0001;
 444              		.loc 2 117 9 view .LVU112
 117:dsp/modulation/LFO.hpp ****             _revPoint = 0.0001;
 445              		.loc 2 117 12 is_stmt 0 view .LVU113
 446 0004 B7EEC04A 		vcvt.f64.f32	d4, s0
 117:dsp/modulation/LFO.hpp ****             _revPoint = 0.0001;
 447              		.loc 2 117 9 view .LVU114
 448 0008 B4EEC74B 		vcmpe.f64	d4, d7
 449 000c F1EE10FA 		vmrs	APSR_nzcv, FPSCR
 450 0010 26D5     		bpl	.L41
 118:dsp/modulation/LFO.hpp ****         }
 451              		.loc 2 118 13 is_stmt 1 view .LVU115
 118:dsp/modulation/LFO.hpp ****         }
 452              		.loc 2 118 23 is_stmt 0 view .LVU116
 453 0012 5B49     		ldr	r1, .L46+16
 124:dsp/modulation/LFO.hpp ****         _fallRate = -1.0 / (1.0 - _revPoint);
 454              		.loc 2 124 19 view .LVU117
 455 0014 5B4A     		ldr	r2, .L46+20
 125:dsp/modulation/LFO.hpp ****     }
 456              		.loc 2 125 19 view .LVU118
 457 0016 5C4B     		ldr	r3, .L46+24
 118:dsp/modulation/LFO.hpp ****         }
 458              		.loc 2 118 23 view .LVU119
 459 0018 C0F8A410 		str	r1, [r0, #164]	@ float
 120:dsp/modulation/LFO.hpp ****             _revPoint = 0.999;
 460              		.loc 2 120 9 is_stmt 1 view .LVU120
 124:dsp/modulation/LFO.hpp ****         _fallRate = -1.0 / (1.0 - _revPoint);
 461              		.loc 2 124 9 view .LVU121
 124:dsp/modulation/LFO.hpp ****         _fallRate = -1.0 / (1.0 - _revPoint);
 462              		.loc 2 124 19 is_stmt 0 view .LVU122
 463 001c C0F8A820 		str	r2, [r0, #168]	@ float
 125:dsp/modulation/LFO.hpp ****     }
 464              		.loc 2 125 9 is_stmt 1 view .LVU123
 125:dsp/modulation/LFO.hpp ****     }
 465              		.loc 2 125 19 is_stmt 0 view .LVU124
 466 0020 C0F8AC30 		str	r3, [r0, #172]	@ float
 467              	.LVL26:
 125:dsp/modulation/LFO.hpp ****     }
ARM GAS  C:\Users\digit\AppData\Local\Temp\ccMK4Fcw.s 			page 15


 468              		.loc 2 125 19 view .LVU125
 469              	.LBE376:
 470              	.LBE382:
 144:Dattorro.cpp  ****     lfo2.setRevPoint(shape);
 471              		.loc 1 144 5 is_stmt 1 view .LVU126
 472              	.LBB383:
 473              	.LBI383:
 115:dsp/modulation/LFO.hpp ****         _revPoint = revPoint;
 474              		.loc 2 115 10 view .LVU127
 475              	.LBB384:
 116:dsp/modulation/LFO.hpp ****         if(_revPoint < 0.0001) {
 476              		.loc 2 116 9 view .LVU128
 117:dsp/modulation/LFO.hpp ****             _revPoint = 0.0001;
 477              		.loc 2 117 9 view .LVU129
 478              	.L26:
 118:dsp/modulation/LFO.hpp ****         }
 479              		.loc 2 118 13 view .LVU130
 118:dsp/modulation/LFO.hpp ****         }
 480              		.loc 2 118 23 is_stmt 0 view .LVU131
 481 0024 5649     		ldr	r1, .L46+16
 124:dsp/modulation/LFO.hpp ****         _fallRate = -1.0 / (1.0 - _revPoint);
 482              		.loc 2 124 19 view .LVU132
 483 0026 574A     		ldr	r2, .L46+20
 125:dsp/modulation/LFO.hpp ****     }
 484              		.loc 2 125 19 view .LVU133
 485 0028 574B     		ldr	r3, .L46+24
 118:dsp/modulation/LFO.hpp ****         }
 486              		.loc 2 118 23 view .LVU134
 487 002a C0F8CC10 		str	r1, [r0, #204]	@ float
 120:dsp/modulation/LFO.hpp ****             _revPoint = 0.999;
 488              		.loc 2 120 9 is_stmt 1 view .LVU135
 124:dsp/modulation/LFO.hpp ****         _fallRate = -1.0 / (1.0 - _revPoint);
 489              		.loc 2 124 9 view .LVU136
 124:dsp/modulation/LFO.hpp ****         _fallRate = -1.0 / (1.0 - _revPoint);
 490              		.loc 2 124 19 is_stmt 0 view .LVU137
 491 002e C0F8D020 		str	r2, [r0, #208]	@ float
 125:dsp/modulation/LFO.hpp ****     }
 492              		.loc 2 125 9 is_stmt 1 view .LVU138
 125:dsp/modulation/LFO.hpp ****     }
 493              		.loc 2 125 19 is_stmt 0 view .LVU139
 494 0032 C0F8D430 		str	r3, [r0, #212]	@ float
 495              	.LVL27:
 125:dsp/modulation/LFO.hpp ****     }
 496              		.loc 2 125 19 view .LVU140
 497              	.LBE384:
 498              	.LBE383:
 145:Dattorro.cpp  ****     lfo3.setRevPoint(shape);
 499              		.loc 1 145 5 is_stmt 1 view .LVU141
 500              	.LBB391:
 501              	.LBI391:
 115:dsp/modulation/LFO.hpp ****         _revPoint = revPoint;
 502              		.loc 2 115 10 view .LVU142
 503              	.LBB392:
 116:dsp/modulation/LFO.hpp ****         if(_revPoint < 0.0001) {
 504              		.loc 2 116 9 view .LVU143
 117:dsp/modulation/LFO.hpp ****             _revPoint = 0.0001;
 505              		.loc 2 117 9 view .LVU144
ARM GAS  C:\Users\digit\AppData\Local\Temp\ccMK4Fcw.s 			page 16


 506              	.L31:
 118:dsp/modulation/LFO.hpp ****         }
 507              		.loc 2 118 13 view .LVU145
 118:dsp/modulation/LFO.hpp ****         }
 508              		.loc 2 118 23 is_stmt 0 view .LVU146
 509 0036 5249     		ldr	r1, .L46+16
 124:dsp/modulation/LFO.hpp ****         _fallRate = -1.0 / (1.0 - _revPoint);
 510              		.loc 2 124 19 view .LVU147
 511 0038 524A     		ldr	r2, .L46+20
 125:dsp/modulation/LFO.hpp ****     }
 512              		.loc 2 125 19 view .LVU148
 513 003a 534B     		ldr	r3, .L46+24
 118:dsp/modulation/LFO.hpp ****         }
 514              		.loc 2 118 23 view .LVU149
 515 003c C0F8F410 		str	r1, [r0, #244]	@ float
 120:dsp/modulation/LFO.hpp ****             _revPoint = 0.999;
 516              		.loc 2 120 9 is_stmt 1 view .LVU150
 124:dsp/modulation/LFO.hpp ****         _fallRate = -1.0 / (1.0 - _revPoint);
 517              		.loc 2 124 9 view .LVU151
 124:dsp/modulation/LFO.hpp ****         _fallRate = -1.0 / (1.0 - _revPoint);
 518              		.loc 2 124 19 is_stmt 0 view .LVU152
 519 0040 C0F8F820 		str	r2, [r0, #248]	@ float
 125:dsp/modulation/LFO.hpp ****     }
 520              		.loc 2 125 9 is_stmt 1 view .LVU153
 125:dsp/modulation/LFO.hpp ****     }
 521              		.loc 2 125 19 is_stmt 0 view .LVU154
 522 0044 C0F8FC30 		str	r3, [r0, #252]	@ float
 523              	.LVL28:
 125:dsp/modulation/LFO.hpp ****     }
 524              		.loc 2 125 19 view .LVU155
 525              	.LBE392:
 526              	.LBE391:
 146:Dattorro.cpp  ****     lfo4.setRevPoint(shape);
 527              		.loc 1 146 5 is_stmt 1 view .LVU156
 528              	.LBB397:
 529              	.LBI397:
 115:dsp/modulation/LFO.hpp ****         _revPoint = revPoint;
 530              		.loc 2 115 10 view .LVU157
 531              	.LBB398:
 116:dsp/modulation/LFO.hpp ****         if(_revPoint < 0.0001) {
 532              		.loc 2 116 9 view .LVU158
 117:dsp/modulation/LFO.hpp ****             _revPoint = 0.0001;
 533              		.loc 2 117 9 view .LVU159
 534              	.L35:
 118:dsp/modulation/LFO.hpp ****         }
 535              		.loc 2 118 13 view .LVU160
 118:dsp/modulation/LFO.hpp ****         }
 536              		.loc 2 118 23 is_stmt 0 view .LVU161
 537 0048 4D4B     		ldr	r3, .L46+16
 538 004a DFED507A 		vldr.32	s15, .L46+28
 539 004e 9FED507A 		vldr.32	s14, .L46+32
 540 0052 C0F81C31 		str	r3, [r0, #284]	@ float
 120:dsp/modulation/LFO.hpp ****             _revPoint = 0.999;
 541              		.loc 2 120 9 is_stmt 1 view .LVU162
 542              	.LVL29:
 543              	.L39:
 124:dsp/modulation/LFO.hpp ****         _fallRate = -1.0 / (1.0 - _revPoint);
ARM GAS  C:\Users\digit\AppData\Local\Temp\ccMK4Fcw.s 			page 17


 544              		.loc 2 124 9 view .LVU163
 124:dsp/modulation/LFO.hpp ****         _fallRate = -1.0 / (1.0 - _revPoint);
 545              		.loc 2 124 19 is_stmt 0 view .LVU164
 546 0056 80ED487A 		vstr.32	s14, [r0, #288]
 125:dsp/modulation/LFO.hpp ****     }
 547              		.loc 2 125 9 is_stmt 1 view .LVU165
 125:dsp/modulation/LFO.hpp ****     }
 548              		.loc 2 125 19 is_stmt 0 view .LVU166
 549 005a C0ED497A 		vstr.32	s15, [r0, #292]
 550              	.LVL30:
 125:dsp/modulation/LFO.hpp ****     }
 551              		.loc 2 125 19 view .LVU167
 552              	.LBE398:
 553              	.LBE397:
 147:Dattorro.cpp  **** }
 554              		.loc 1 147 1 view .LVU168
 555 005e 7047     		bx	lr
 556              	.LVL31:
 557              	.L41:
 558              	.LBB402:
 559              	.LBB377:
 120:dsp/modulation/LFO.hpp ****             _revPoint = 0.999;
 560              		.loc 2 120 9 is_stmt 1 view .LVU169
 561 0060 9FED453B 		vldr.64	d3, .L46+8
 562 0064 B4EEC34B 		vcmpe.f64	d4, d3
 563 0068 F1EE10FA 		vmrs	APSR_nzcv, FPSCR
 564 006c 39DD     		ble	.L45
 121:dsp/modulation/LFO.hpp ****         }
 565              		.loc 2 121 13 view .LVU170
 566              	.LBE377:
 567              	.LBE402:
 568              	.LBB403:
 569              	.LBB385:
 117:dsp/modulation/LFO.hpp ****             _revPoint = 0.0001;
 570              		.loc 2 117 9 is_stmt 0 view .LVU171
 571 006e B4EEC74B 		vcmpe.f64	d4, d7
 572              	.LBE385:
 573              	.LBE403:
 574              	.LBB404:
 575              	.LBB378:
 121:dsp/modulation/LFO.hpp ****         }
 576              		.loc 2 121 23 view .LVU172
 577 0072 4849     		ldr	r1, .L46+36
 124:dsp/modulation/LFO.hpp ****         _fallRate = -1.0 / (1.0 - _revPoint);
 578              		.loc 2 124 19 view .LVU173
 579 0074 484A     		ldr	r2, .L46+40
 125:dsp/modulation/LFO.hpp ****     }
 580              		.loc 2 125 19 view .LVU174
 581 0076 494B     		ldr	r3, .L46+44
 582              	.LBE378:
 583              	.LBE404:
 584              	.LBB405:
 585              	.LBB386:
 117:dsp/modulation/LFO.hpp ****             _revPoint = 0.0001;
 586              		.loc 2 117 9 view .LVU175
 587 0078 F1EE10FA 		vmrs	APSR_nzcv, FPSCR
 588              	.LBE386:
ARM GAS  C:\Users\digit\AppData\Local\Temp\ccMK4Fcw.s 			page 18


 589              	.LBE405:
 590              	.LBB406:
 591              	.LBB379:
 121:dsp/modulation/LFO.hpp ****         }
 592              		.loc 2 121 23 view .LVU176
 593 007c C0F8A410 		str	r1, [r0, #164]	@ float
 124:dsp/modulation/LFO.hpp ****         _fallRate = -1.0 / (1.0 - _revPoint);
 594              		.loc 2 124 9 is_stmt 1 view .LVU177
 124:dsp/modulation/LFO.hpp ****         _fallRate = -1.0 / (1.0 - _revPoint);
 595              		.loc 2 124 19 is_stmt 0 view .LVU178
 596 0080 C0F8A820 		str	r2, [r0, #168]	@ float
 125:dsp/modulation/LFO.hpp ****     }
 597              		.loc 2 125 9 is_stmt 1 view .LVU179
 125:dsp/modulation/LFO.hpp ****     }
 598              		.loc 2 125 19 is_stmt 0 view .LVU180
 599 0084 C0F8AC30 		str	r3, [r0, #172]	@ float
 600              	.LVL32:
 125:dsp/modulation/LFO.hpp ****     }
 601              		.loc 2 125 19 view .LVU181
 602              	.LBE379:
 603              	.LBE406:
 144:Dattorro.cpp  ****     lfo3.setRevPoint(shape);
 604              		.loc 1 144 5 is_stmt 1 view .LVU182
 605              	.LBB407:
 115:dsp/modulation/LFO.hpp ****         _revPoint = revPoint;
 606              		.loc 2 115 10 view .LVU183
 607              	.LBB387:
 116:dsp/modulation/LFO.hpp ****         if(_revPoint < 0.0001) {
 608              		.loc 2 116 9 view .LVU184
 117:dsp/modulation/LFO.hpp ****             _revPoint = 0.0001;
 609              		.loc 2 117 9 view .LVU185
 610 0088 CCD4     		bmi	.L26
 611              	.LVL33:
 612              	.L29:
 121:dsp/modulation/LFO.hpp ****         }
 613              		.loc 2 121 13 view .LVU186
 121:dsp/modulation/LFO.hpp ****         }
 614              		.loc 2 121 23 is_stmt 0 view .LVU187
 615 008a 4249     		ldr	r1, .L46+36
 124:dsp/modulation/LFO.hpp ****         _fallRate = -1.0 / (1.0 - _revPoint);
 616              		.loc 2 124 19 view .LVU188
 617 008c 424A     		ldr	r2, .L46+40
 125:dsp/modulation/LFO.hpp ****     }
 618              		.loc 2 125 19 view .LVU189
 619 008e 434B     		ldr	r3, .L46+44
 121:dsp/modulation/LFO.hpp ****         }
 620              		.loc 2 121 23 view .LVU190
 621 0090 C0F8CC10 		str	r1, [r0, #204]	@ float
 124:dsp/modulation/LFO.hpp ****         _fallRate = -1.0 / (1.0 - _revPoint);
 622              		.loc 2 124 9 is_stmt 1 view .LVU191
 124:dsp/modulation/LFO.hpp ****         _fallRate = -1.0 / (1.0 - _revPoint);
 623              		.loc 2 124 19 is_stmt 0 view .LVU192
 624 0094 C0F8D020 		str	r2, [r0, #208]	@ float
 125:dsp/modulation/LFO.hpp ****     }
 625              		.loc 2 125 9 is_stmt 1 view .LVU193
 125:dsp/modulation/LFO.hpp ****     }
 626              		.loc 2 125 19 is_stmt 0 view .LVU194
ARM GAS  C:\Users\digit\AppData\Local\Temp\ccMK4Fcw.s 			page 19


 627 0098 C0F8D430 		str	r3, [r0, #212]	@ float
 628              	.LVL34:
 125:dsp/modulation/LFO.hpp ****     }
 629              		.loc 2 125 19 view .LVU195
 630              	.LBE387:
 631              	.LBE407:
 145:Dattorro.cpp  ****     lfo4.setRevPoint(shape);
 632              		.loc 1 145 5 is_stmt 1 view .LVU196
 633              	.LBB408:
 115:dsp/modulation/LFO.hpp ****         _revPoint = revPoint;
 634              		.loc 2 115 10 view .LVU197
 635              	.LBB393:
 116:dsp/modulation/LFO.hpp ****         if(_revPoint < 0.0001) {
 636              		.loc 2 116 9 view .LVU198
 117:dsp/modulation/LFO.hpp ****             _revPoint = 0.0001;
 637              		.loc 2 117 9 view .LVU199
 638 009c 9FED347B 		vldr.64	d7, .L46
 639 00a0 B4EEC74B 		vcmpe.f64	d4, d7
 640 00a4 F1EE10FA 		vmrs	APSR_nzcv, FPSCR
 641 00a8 C5D4     		bmi	.L31
 642              	.LVL35:
 643              	.L33:
 121:dsp/modulation/LFO.hpp ****         }
 644              		.loc 2 121 13 view .LVU200
 121:dsp/modulation/LFO.hpp ****         }
 645              		.loc 2 121 23 is_stmt 0 view .LVU201
 646 00aa 3A49     		ldr	r1, .L46+36
 124:dsp/modulation/LFO.hpp ****         _fallRate = -1.0 / (1.0 - _revPoint);
 647              		.loc 2 124 19 view .LVU202
 648 00ac 3A4A     		ldr	r2, .L46+40
 125:dsp/modulation/LFO.hpp ****     }
 649              		.loc 2 125 19 view .LVU203
 650 00ae 3B4B     		ldr	r3, .L46+44
 121:dsp/modulation/LFO.hpp ****         }
 651              		.loc 2 121 23 view .LVU204
 652 00b0 C0F8F410 		str	r1, [r0, #244]	@ float
 124:dsp/modulation/LFO.hpp ****         _fallRate = -1.0 / (1.0 - _revPoint);
 653              		.loc 2 124 9 is_stmt 1 view .LVU205
 124:dsp/modulation/LFO.hpp ****         _fallRate = -1.0 / (1.0 - _revPoint);
 654              		.loc 2 124 19 is_stmt 0 view .LVU206
 655 00b4 C0F8F820 		str	r2, [r0, #248]	@ float
 125:dsp/modulation/LFO.hpp ****     }
 656              		.loc 2 125 9 is_stmt 1 view .LVU207
 125:dsp/modulation/LFO.hpp ****     }
 657              		.loc 2 125 19 is_stmt 0 view .LVU208
 658 00b8 C0F8FC30 		str	r3, [r0, #252]	@ float
 659              	.LVL36:
 125:dsp/modulation/LFO.hpp ****     }
 660              		.loc 2 125 19 view .LVU209
 661              	.LBE393:
 662              	.LBE408:
 146:Dattorro.cpp  **** }
 663              		.loc 1 146 5 is_stmt 1 view .LVU210
 664              	.LBB409:
 115:dsp/modulation/LFO.hpp ****         _revPoint = revPoint;
 665              		.loc 2 115 10 view .LVU211
 666              	.LBB399:
ARM GAS  C:\Users\digit\AppData\Local\Temp\ccMK4Fcw.s 			page 20


 116:dsp/modulation/LFO.hpp ****         if(_revPoint < 0.0001) {
 667              		.loc 2 116 9 view .LVU212
 117:dsp/modulation/LFO.hpp ****             _revPoint = 0.0001;
 668              		.loc 2 117 9 view .LVU213
 669 00bc 9FED2C7B 		vldr.64	d7, .L46
 670 00c0 B4EEC74B 		vcmpe.f64	d4, d7
 671 00c4 F1EE10FA 		vmrs	APSR_nzcv, FPSCR
 672 00c8 BED4     		bmi	.L35
 673              	.LVL37:
 674              	.L37:
 121:dsp/modulation/LFO.hpp ****         }
 675              		.loc 2 121 13 view .LVU214
 121:dsp/modulation/LFO.hpp ****         }
 676              		.loc 2 121 23 is_stmt 0 view .LVU215
 677 00ca 324B     		ldr	r3, .L46+36
 678 00cc DFED347A 		vldr.32	s15, .L46+48
 679 00d0 9FED347A 		vldr.32	s14, .L46+52
 680 00d4 C0F81C31 		str	r3, [r0, #284]	@ float
 124:dsp/modulation/LFO.hpp ****         _fallRate = -1.0 / (1.0 - _revPoint);
 681              		.loc 2 124 9 is_stmt 1 view .LVU216
 124:dsp/modulation/LFO.hpp ****         _fallRate = -1.0 / (1.0 - _revPoint);
 682              		.loc 2 124 19 is_stmt 0 view .LVU217
 683 00d8 80ED487A 		vstr.32	s14, [r0, #288]
 125:dsp/modulation/LFO.hpp ****     }
 684              		.loc 2 125 9 is_stmt 1 view .LVU218
 125:dsp/modulation/LFO.hpp ****     }
 685              		.loc 2 125 19 is_stmt 0 view .LVU219
 686 00dc C0ED497A 		vstr.32	s15, [r0, #292]
 687              	.LVL38:
 125:dsp/modulation/LFO.hpp ****     }
 688              		.loc 2 125 19 view .LVU220
 689              	.LBE399:
 690              	.LBE409:
 691              		.loc 1 147 1 view .LVU221
 692 00e0 7047     		bx	lr
 693              	.LVL39:
 694              	.L45:
 695              	.LBB410:
 696              	.LBB380:
 125:dsp/modulation/LFO.hpp ****     }
 697              		.loc 2 125 33 view .LVU222
 698 00e2 B7EE002B 		vmov.f64	d2, #1.0e+0
 116:dsp/modulation/LFO.hpp ****         if(_revPoint < 0.0001) {
 699              		.loc 2 116 19 view .LVU223
 700 00e6 80ED290A 		vstr.32	s0, [r0, #164]
 124:dsp/modulation/LFO.hpp ****         _fallRate = -1.0 / (1.0 - _revPoint);
 701              		.loc 2 124 9 is_stmt 1 view .LVU224
 124:dsp/modulation/LFO.hpp ****         _fallRate = -1.0 / (1.0 - _revPoint);
 702              		.loc 2 124 25 is_stmt 0 view .LVU225
 703 00ea F7EE006A 		vmov.f32	s13, #1.0e+0
 125:dsp/modulation/LFO.hpp ****     }
 704              		.loc 2 125 26 view .LVU226
 705 00ee BFEE001B 		vmov.f64	d1, #-1.0e+0
 125:dsp/modulation/LFO.hpp ****     }
 706              		.loc 2 125 33 view .LVU227
 707 00f2 32EE442B 		vsub.f64	d2, d2, d4
 124:dsp/modulation/LFO.hpp ****         _fallRate = -1.0 / (1.0 - _revPoint);
ARM GAS  C:\Users\digit\AppData\Local\Temp\ccMK4Fcw.s 			page 21


 708              		.loc 2 124 25 view .LVU228
 709 00f6 C6EE805A 		vdiv.f32	s11, s13, s0
 125:dsp/modulation/LFO.hpp ****     }
 710              		.loc 2 125 26 view .LVU229
 711 00fa 81EE026B 		vdiv.f64	d6, d1, d2
 712              	.LBE380:
 713              	.LBE410:
 714              	.LBB411:
 715              	.LBB388:
 117:dsp/modulation/LFO.hpp ****             _revPoint = 0.0001;
 716              		.loc 2 117 9 view .LVU230
 717 00fe B4EEC74B 		vcmpe.f64	d4, d7
 718 0102 F1EE10FA 		vmrs	APSR_nzcv, FPSCR
 719              	.LBE388:
 720              	.LBE411:
 721              	.LBB412:
 722              	.LBB381:
 124:dsp/modulation/LFO.hpp ****         _fallRate = -1.0 / (1.0 - _revPoint);
 723              		.loc 2 124 19 view .LVU231
 724 0106 C0ED2A5A 		vstr.32	s11, [r0, #168]
 125:dsp/modulation/LFO.hpp ****     }
 725              		.loc 2 125 9 is_stmt 1 view .LVU232
 125:dsp/modulation/LFO.hpp ****     }
 726              		.loc 2 125 26 is_stmt 0 view .LVU233
 727 010a B7EEC66B 		vcvt.f32.f64	s12, d6
 728 010e 80ED2B6A 		vstr.32	s12, [r0, #172]
 729              	.LVL40:
 125:dsp/modulation/LFO.hpp ****     }
 730              		.loc 2 125 26 view .LVU234
 731              	.LBE381:
 732              	.LBE412:
 144:Dattorro.cpp  ****     lfo3.setRevPoint(shape);
 733              		.loc 1 144 5 is_stmt 1 view .LVU235
 734              	.LBB413:
 115:dsp/modulation/LFO.hpp ****         _revPoint = revPoint;
 735              		.loc 2 115 10 view .LVU236
 736              	.LBB389:
 116:dsp/modulation/LFO.hpp ****         if(_revPoint < 0.0001) {
 737              		.loc 2 116 9 view .LVU237
 117:dsp/modulation/LFO.hpp ****             _revPoint = 0.0001;
 738              		.loc 2 117 9 view .LVU238
 739 0112 87D4     		bmi	.L26
 120:dsp/modulation/LFO.hpp ****             _revPoint = 0.999;
 740              		.loc 2 120 9 view .LVU239
 741 0114 B4EEC34B 		vcmpe.f64	d4, d3
 742 0118 F1EE10FA 		vmrs	APSR_nzcv, FPSCR
 743 011c B5DC     		bgt	.L29
 744              	.LBE389:
 745              	.LBE413:
 746              	.LBB414:
 747              	.LBB394:
 117:dsp/modulation/LFO.hpp ****             _revPoint = 0.0001;
 748              		.loc 2 117 9 is_stmt 0 view .LVU240
 749 011e B4EEC74B 		vcmpe.f64	d4, d7
 750              	.LBE394:
 751              	.LBE414:
 752              	.LBB415:
ARM GAS  C:\Users\digit\AppData\Local\Temp\ccMK4Fcw.s 			page 22


 753              	.LBB390:
 116:dsp/modulation/LFO.hpp ****         if(_revPoint < 0.0001) {
 754              		.loc 2 116 19 view .LVU241
 755 0122 80ED330A 		vstr.32	s0, [r0, #204]
 124:dsp/modulation/LFO.hpp ****         _fallRate = -1.0 / (1.0 - _revPoint);
 756              		.loc 2 124 9 is_stmt 1 view .LVU242
 124:dsp/modulation/LFO.hpp ****         _fallRate = -1.0 / (1.0 - _revPoint);
 757              		.loc 2 124 19 is_stmt 0 view .LVU243
 758 0126 C0ED345A 		vstr.32	s11, [r0, #208]
 125:dsp/modulation/LFO.hpp ****     }
 759              		.loc 2 125 9 is_stmt 1 view .LVU244
 125:dsp/modulation/LFO.hpp ****     }
 760              		.loc 2 125 26 is_stmt 0 view .LVU245
 761 012a 80ED356A 		vstr.32	s12, [r0, #212]
 762              	.LVL41:
 125:dsp/modulation/LFO.hpp ****     }
 763              		.loc 2 125 26 view .LVU246
 764              	.LBE390:
 765              	.LBE415:
 145:Dattorro.cpp  ****     lfo4.setRevPoint(shape);
 766              		.loc 1 145 5 is_stmt 1 view .LVU247
 767              	.LBB416:
 115:dsp/modulation/LFO.hpp ****         _revPoint = revPoint;
 768              		.loc 2 115 10 view .LVU248
 769              	.LBB395:
 116:dsp/modulation/LFO.hpp ****         if(_revPoint < 0.0001) {
 770              		.loc 2 116 9 view .LVU249
 117:dsp/modulation/LFO.hpp ****             _revPoint = 0.0001;
 771              		.loc 2 117 9 view .LVU250
 772 012e F1EE10FA 		vmrs	APSR_nzcv, FPSCR
 773 0132 80D4     		bmi	.L31
 120:dsp/modulation/LFO.hpp ****             _revPoint = 0.999;
 774              		.loc 2 120 9 view .LVU251
 775 0134 B4EEC34B 		vcmpe.f64	d4, d3
 776 0138 F1EE10FA 		vmrs	APSR_nzcv, FPSCR
 777 013c B5DC     		bgt	.L33
 778              	.LBE395:
 779              	.LBE416:
 780              	.LBB417:
 781              	.LBB400:
 117:dsp/modulation/LFO.hpp ****             _revPoint = 0.0001;
 782              		.loc 2 117 9 is_stmt 0 view .LVU252
 783 013e B4EEC74B 		vcmpe.f64	d4, d7
 784              	.LBE400:
 785              	.LBE417:
 786              	.LBB418:
 787              	.LBB396:
 116:dsp/modulation/LFO.hpp ****         if(_revPoint < 0.0001) {
 788              		.loc 2 116 19 view .LVU253
 789 0142 80ED3D0A 		vstr.32	s0, [r0, #244]
 124:dsp/modulation/LFO.hpp ****         _fallRate = -1.0 / (1.0 - _revPoint);
 790              		.loc 2 124 9 is_stmt 1 view .LVU254
 124:dsp/modulation/LFO.hpp ****         _fallRate = -1.0 / (1.0 - _revPoint);
 791              		.loc 2 124 19 is_stmt 0 view .LVU255
 792 0146 C0ED3E5A 		vstr.32	s11, [r0, #248]
 125:dsp/modulation/LFO.hpp ****     }
 793              		.loc 2 125 9 is_stmt 1 view .LVU256
ARM GAS  C:\Users\digit\AppData\Local\Temp\ccMK4Fcw.s 			page 23


 125:dsp/modulation/LFO.hpp ****     }
 794              		.loc 2 125 26 is_stmt 0 view .LVU257
 795 014a 80ED3F6A 		vstr.32	s12, [r0, #252]
 796              	.LVL42:
 125:dsp/modulation/LFO.hpp ****     }
 797              		.loc 2 125 26 view .LVU258
 798              	.LBE396:
 799              	.LBE418:
 146:Dattorro.cpp  **** }
 800              		.loc 1 146 5 is_stmt 1 view .LVU259
 801              	.LBB419:
 115:dsp/modulation/LFO.hpp ****         _revPoint = revPoint;
 802              		.loc 2 115 10 view .LVU260
 803              	.LBB401:
 116:dsp/modulation/LFO.hpp ****         if(_revPoint < 0.0001) {
 804              		.loc 2 116 9 view .LVU261
 117:dsp/modulation/LFO.hpp ****             _revPoint = 0.0001;
 805              		.loc 2 117 9 view .LVU262
 806 014e F1EE10FA 		vmrs	APSR_nzcv, FPSCR
 807 0152 3FF579AF 		bmi	.L35
 120:dsp/modulation/LFO.hpp ****             _revPoint = 0.999;
 808              		.loc 2 120 9 view .LVU263
 809 0156 B4EEC34B 		vcmpe.f64	d4, d3
 810 015a F1EE10FA 		vmrs	APSR_nzcv, FPSCR
 811 015e B4DC     		bgt	.L37
 124:dsp/modulation/LFO.hpp ****         _fallRate = -1.0 / (1.0 - _revPoint);
 812              		.loc 2 124 25 is_stmt 0 view .LVU264
 813 0160 B0EE657A 		vmov.f32	s14, s11
 116:dsp/modulation/LFO.hpp ****         if(_revPoint < 0.0001) {
 814              		.loc 2 116 19 view .LVU265
 815 0164 80ED470A 		vstr.32	s0, [r0, #284]
 125:dsp/modulation/LFO.hpp ****     }
 816              		.loc 2 125 26 view .LVU266
 817 0168 F0EE467A 		vmov.f32	s15, s12
 818 016c 73E7     		b	.L39
 819              	.L47:
 820 016e 00BF     		.align	3
 821              	.L46:
 822 0170 2D431CEB 		.word	-350469331
 823 0174 E2361A3F 		.word	1058682594
 824 0178 2B8716D9 		.word	-652835029
 825 017c CEF7EF3F 		.word	1072691150
 826 0180 17B7D138 		.word	953267991
 827 0184 00401C46 		.word	1176256512
 828 0188 470380BF 		.word	-1082129593
 829 018c 470380BF 		.word	-1082129593
 830 0190 00401C46 		.word	1176256512
 831 0194 77BE7F3F 		.word	1065336439
 832 0198 CD20803F 		.word	1065361613
 833 019c D3007AC4 		.word	-998637357
 834 01a0 D3007AC4 		.word	-998637357
 835 01a4 CD20803F 		.word	1065361613
 836              	.LBE401:
 837              	.LBE419:
 838              		.cfi_endproc
 839              	.LFE4783:
 841              		.section	.text._ZN16Dattorro1997Tank19setHighCutFrequencyEf,"ax",%progbits
ARM GAS  C:\Users\digit\AppData\Local\Temp\ccMK4Fcw.s 			page 24


 842              		.align	1
 843              		.p2align 2,,3
 844              		.global	_ZN16Dattorro1997Tank19setHighCutFrequencyEf
 845              		.syntax unified
 846              		.thumb
 847              		.thumb_func
 848              		.fpu fpv5-d16
 850              	_ZN16Dattorro1997Tank19setHighCutFrequencyEf:
 851              	.LVL43:
 852              	.LFB4784:
 148:Dattorro.cpp  **** 
 149:Dattorro.cpp  **** void Dattorro1997Tank::setHighCutFrequency(const float frequency) {
 853              		.loc 1 149 67 is_stmt 1 view -0
 854              		.cfi_startproc
 855              		@ args = 0, pretend = 0, frame = 0
 856              		@ frame_needed = 0, uses_anonymous_args = 0
 150:Dattorro.cpp  ****     leftHighCutFilter.setCutoffFreq(frequency);
 857              		.loc 1 150 5 view .LVU268
 149:Dattorro.cpp  ****     leftHighCutFilter.setCutoffFreq(frequency);
 858              		.loc 1 149 67 is_stmt 0 view .LVU269
 859 0000 10B5     		push	{r4, lr}
 860              		.cfi_def_cfa_offset 8
 861              		.cfi_offset 4, -8
 862              		.cfi_offset 14, -4
 863 0002 2DED028B 		vpush.64	{d8}
 864              		.cfi_def_cfa_offset 16
 865              		.cfi_offset 80, -16
 866              		.cfi_offset 81, -12
 149:Dattorro.cpp  ****     leftHighCutFilter.setCutoffFreq(frequency);
 867              		.loc 1 149 67 view .LVU270
 868 0006 B0EE408A 		vmov.f32	s16, s0
 869 000a 0446     		mov	r4, r0
 870              		.loc 1 150 36 view .LVU271
 871 000c 00F5D870 		add	r0, r0, #432
 872              	.LVL44:
 873              		.loc 1 150 36 view .LVU272
 874 0010 FFF7FEFF 		bl	_ZN15OnePoleLPFilter13setCutoffFreqEf
 875              	.LVL45:
 151:Dattorro.cpp  ****     rightHighCutFilter.setCutoffFreq(frequency);
 876              		.loc 1 151 5 is_stmt 1 view .LVU273
 877              		.loc 1 151 37 is_stmt 0 view .LVU274
 878 0014 04F53C70 		add	r0, r4, #752
 879 0018 B0EE480A 		vmov.f32	s0, s16
 152:Dattorro.cpp  **** }
 880              		.loc 1 152 1 view .LVU275
 881 001c BDEC028B 		vldm	sp!, {d8}
 882              		.cfi_restore 80
 883              		.cfi_restore 81
 884              		.cfi_def_cfa_offset 8
 885              	.LVL46:
 886              		.loc 1 152 1 view .LVU276
 887 0020 BDE81040 		pop	{r4, lr}
 888              		.cfi_restore 14
 889              		.cfi_restore 4
 890              		.cfi_def_cfa_offset 0
 891              	.LVL47:
 151:Dattorro.cpp  ****     rightHighCutFilter.setCutoffFreq(frequency);
ARM GAS  C:\Users\digit\AppData\Local\Temp\ccMK4Fcw.s 			page 25


 892              		.loc 1 151 37 view .LVU277
 893 0024 FFF7FEBF 		b	_ZN15OnePoleLPFilter13setCutoffFreqEf
 894              	.LVL48:
 151:Dattorro.cpp  ****     rightHighCutFilter.setCutoffFreq(frequency);
 895              		.loc 1 151 37 view .LVU278
 896              		.cfi_endproc
 897              	.LFE4784:
 899              		.section	.text._ZN16Dattorro1997Tank18setLowCutFrequencyEf,"ax",%progbits
 900              		.align	1
 901              		.p2align 2,,3
 902              		.global	_ZN16Dattorro1997Tank18setLowCutFrequencyEf
 903              		.syntax unified
 904              		.thumb
 905              		.thumb_func
 906              		.fpu fpv5-d16
 908              	_ZN16Dattorro1997Tank18setLowCutFrequencyEf:
 909              	.LVL49:
 910              	.LFB4785:
 153:Dattorro.cpp  **** 
 154:Dattorro.cpp  **** void Dattorro1997Tank::setLowCutFrequency(const float frequency) {
 911              		.loc 1 154 66 is_stmt 1 view -0
 912              		.cfi_startproc
 913              		@ args = 0, pretend = 0, frame = 0
 914              		@ frame_needed = 0, uses_anonymous_args = 0
 155:Dattorro.cpp  ****     leftLowCutFilter.setCutoffFreq(frequency);
 915              		.loc 1 155 5 view .LVU280
 154:Dattorro.cpp  ****     leftLowCutFilter.setCutoffFreq(frequency);
 916              		.loc 1 154 66 is_stmt 0 view .LVU281
 917 0000 10B5     		push	{r4, lr}
 918              		.cfi_def_cfa_offset 8
 919              		.cfi_offset 4, -8
 920              		.cfi_offset 14, -4
 921 0002 2DED028B 		vpush.64	{d8}
 922              		.cfi_def_cfa_offset 16
 923              		.cfi_offset 80, -16
 924              		.cfi_offset 81, -12
 154:Dattorro.cpp  ****     leftLowCutFilter.setCutoffFreq(frequency);
 925              		.loc 1 154 66 view .LVU282
 926 0006 B0EE408A 		vmov.f32	s16, s0
 927 000a 0446     		mov	r4, r0
 928              		.loc 1 155 35 view .LVU283
 929 000c 00F5EA70 		add	r0, r0, #468
 930              	.LVL50:
 931              		.loc 1 155 35 view .LVU284
 932 0010 FFF7FEFF 		bl	_ZN15OnePoleHPFilter13setCutoffFreqEf
 933              	.LVL51:
 156:Dattorro.cpp  ****     rightLowCutFilter.setCutoffFreq(frequency);
 934              		.loc 1 156 5 is_stmt 1 view .LVU285
 935              		.loc 1 156 36 is_stmt 0 view .LVU286
 936 0014 04F54570 		add	r0, r4, #788
 937 0018 B0EE480A 		vmov.f32	s0, s16
 157:Dattorro.cpp  **** }
 938              		.loc 1 157 1 view .LVU287
 939 001c BDEC028B 		vldm	sp!, {d8}
 940              		.cfi_restore 80
 941              		.cfi_restore 81
 942              		.cfi_def_cfa_offset 8
ARM GAS  C:\Users\digit\AppData\Local\Temp\ccMK4Fcw.s 			page 26


 943              	.LVL52:
 944              		.loc 1 157 1 view .LVU288
 945 0020 BDE81040 		pop	{r4, lr}
 946              		.cfi_restore 14
 947              		.cfi_restore 4
 948              		.cfi_def_cfa_offset 0
 949              	.LVL53:
 156:Dattorro.cpp  ****     rightLowCutFilter.setCutoffFreq(frequency);
 950              		.loc 1 156 36 view .LVU289
 951 0024 FFF7FEBF 		b	_ZN15OnePoleHPFilter13setCutoffFreqEf
 952              	.LVL54:
 156:Dattorro.cpp  ****     rightLowCutFilter.setCutoffFreq(frequency);
 953              		.loc 1 156 36 view .LVU290
 954              		.cfi_endproc
 955              	.LFE4785:
 957              		.section	.text._ZN16Dattorro1997Tank12setDiffusionEf,"ax",%progbits
 958              		.align	1
 959              		.p2align 2,,3
 960              		.global	_ZN16Dattorro1997Tank12setDiffusionEf
 961              		.syntax unified
 962              		.thumb
 963              		.thumb_func
 964              		.fpu fpv5-d16
 966              	_ZN16Dattorro1997Tank12setDiffusionEf:
 967              	.LVL55:
 968              	.LFB4786:
 158:Dattorro.cpp  **** 
 159:Dattorro.cpp  **** float diffusion1 = 0.f;
 160:Dattorro.cpp  **** float diffusion2 = 0.f;
 161:Dattorro.cpp  **** 
 162:Dattorro.cpp  **** void Dattorro1997Tank::setDiffusion(const float diffusion) {
 969              		.loc 1 162 60 is_stmt 1 view -0
 970              		.cfi_startproc
 971              		@ args = 0, pretend = 0, frame = 0
 972              		@ frame_needed = 0, uses_anonymous_args = 0
 973              		@ link register save eliminated.
 974              	.LBB420:
 975              	.LBB421:
   5:Dattorro.cpp  **** }
 976              		.loc 1 5 23 is_stmt 0 view .LVU292
 977 0000 B2EE046A 		vmov.f32	s12, #1.0e+1
 978              	.LBE421:
 979              	.LBE420:
 163:Dattorro.cpp  ****     diffusion1 = scale(diffusion, 0.0, 10.0, 0.0, maxDiffusion1);
 980              		.loc 1 163 5 is_stmt 1 view .LVU293
 981              	.LVL56:
 982              	.LBB425:
 983              	.LBI420:
   4:Dattorro.cpp  ****     return (a - inMin)/(inMax - inMin) * (outMax - outMin) + outMin;
 984              		.loc 1 4 7 view .LVU294
 985              	.LBB422:
   5:Dattorro.cpp  **** }
 986              		.loc 1 5 5 view .LVU295
   5:Dattorro.cpp  **** }
 987              		.loc 1 5 62 is_stmt 0 view .LVU296
 988 0004 9FED0C7A 		vldr.32	s14, .L53
 989 0008 DFED0C7A 		vldr.32	s15, .L53+4
ARM GAS  C:\Users\digit\AppData\Local\Temp\ccMK4Fcw.s 			page 27


 990              	.LBE422:
 991              	.LBE425:
 992              		.loc 1 163 16 view .LVU297
 993 000c 0C4A     		ldr	r2, .L53+8
 994              	.LBB426:
 995              	.LBB423:
   5:Dattorro.cpp  **** }
 996              		.loc 1 5 23 view .LVU298
 997 000e C0EE066A 		vdiv.f32	s13, s0, s12
 998              	.LBE423:
 999              	.LBE426:
 164:Dattorro.cpp  ****     diffusion2 = scale(diffusion, 0.0, 10.0, 0.0, maxDiffusion2);
 1000              		.loc 1 164 16 view .LVU299
 1001 0012 0C4B     		ldr	r3, .L53+12
 1002              	.LBB427:
 1003              	.LBB424:
   5:Dattorro.cpp  **** }
 1004              		.loc 1 5 62 view .LVU300
 1005 0014 E6EE877A 		vfma.f32	s15, s13, s14
 1006              	.LVL57:
   5:Dattorro.cpp  **** }
 1007              		.loc 1 5 62 view .LVU301
 1008              	.LBE424:
 1009              	.LBE427:
 165:Dattorro.cpp  **** 
 166:Dattorro.cpp  ****     leftApf1.setGain(-diffusion1);
 1010              		.loc 1 166 21 view .LVU302
 1011 0018 B1EE677A 		vneg.f32	s14, s15
 163:Dattorro.cpp  ****     diffusion2 = scale(diffusion, 0.0, 10.0, 0.0, maxDiffusion2);
 1012              		.loc 1 163 16 view .LVU303
 1013 001c C2ED007A 		vstr.32	s15, [r2]
 164:Dattorro.cpp  **** 
 1014              		.loc 1 164 5 is_stmt 1 view .LVU304
 1015              	.LVL58:
   5:Dattorro.cpp  **** }
 1016              		.loc 1 5 5 view .LVU305
 164:Dattorro.cpp  **** 
 1017              		.loc 1 164 16 is_stmt 0 view .LVU306
 1018 0020 C3ED007A 		vstr.32	s15, [r3]
 1019              		.loc 1 166 5 is_stmt 1 view .LVU307
 1020              	.LVL59:
 1021              	.LBB428:
 1022              	.LBI428:
 1023              		.file 3 "dsp/delays/AllpassFilter.hpp"
   1:dsp/delays/AllpassFilter.hpp **** #pragma once
   2:dsp/delays/AllpassFilter.hpp **** #include "InterpDelay.hpp"
   3:dsp/delays/AllpassFilter.hpp **** 
   4:dsp/delays/AllpassFilter.hpp **** class AllpassFilter {
   5:dsp/delays/AllpassFilter.hpp **** public:
   6:dsp/delays/AllpassFilter.hpp ****     AllpassFilter() {
   7:dsp/delays/AllpassFilter.hpp ****         clear();
   8:dsp/delays/AllpassFilter.hpp ****         gain = 0.;
   9:dsp/delays/AllpassFilter.hpp ****     }
  10:dsp/delays/AllpassFilter.hpp **** 
  11:dsp/delays/AllpassFilter.hpp ****     AllpassFilter(int maxDelay, int initDelay = 0, float gain = 0.) {
  12:dsp/delays/AllpassFilter.hpp ****         clear();
  13:dsp/delays/AllpassFilter.hpp ****         delay = InterpDelay(maxDelay, initDelay);
ARM GAS  C:\Users\digit\AppData\Local\Temp\ccMK4Fcw.s 			page 28


  14:dsp/delays/AllpassFilter.hpp ****         this->gain = gain;
  15:dsp/delays/AllpassFilter.hpp ****     }
  16:dsp/delays/AllpassFilter.hpp **** 
  17:dsp/delays/AllpassFilter.hpp ****     float inline process() {
  18:dsp/delays/AllpassFilter.hpp ****         _inSum = input + delay.output * gain;
  19:dsp/delays/AllpassFilter.hpp ****         output = delay.output + _inSum * gain * -1;
  20:dsp/delays/AllpassFilter.hpp ****         delay.input = _inSum;
  21:dsp/delays/AllpassFilter.hpp ****         delay.process();
  22:dsp/delays/AllpassFilter.hpp ****         return output;
  23:dsp/delays/AllpassFilter.hpp ****     }
  24:dsp/delays/AllpassFilter.hpp **** 
  25:dsp/delays/AllpassFilter.hpp ****     void clear() {
  26:dsp/delays/AllpassFilter.hpp ****         input = 0;
  27:dsp/delays/AllpassFilter.hpp ****         output = 0;
  28:dsp/delays/AllpassFilter.hpp ****         _inSum = 0;
  29:dsp/delays/AllpassFilter.hpp ****         _outSum = 0;
  30:dsp/delays/AllpassFilter.hpp ****         delay.clear();
  31:dsp/delays/AllpassFilter.hpp ****     }
  32:dsp/delays/AllpassFilter.hpp **** 
  33:dsp/delays/AllpassFilter.hpp ****     void setGain(const float newGain) {
 1024              		.loc 3 33 10 view .LVU308
 1025              	.LBB429:
  34:dsp/delays/AllpassFilter.hpp ****         gain = newGain;
 1026              		.loc 3 34 9 view .LVU309
 1027              	.LBE429:
 1028              	.LBE428:
 1029              	.LBB431:
 1030              	.LBB432:
 1031              		.loc 3 34 14 is_stmt 0 view .LVU310
 1032 0024 C0ED907A 		vstr.32	s15, [r0, #576]
 1033              	.LBE432:
 1034              	.LBE431:
 1035              	.LBB434:
 1036              	.LBB435:
 1037 0028 C0EDE07A 		vstr.32	s15, [r0, #896]
 1038              	.LBE435:
 1039              	.LBE434:
 1040              	.LBB437:
 1041              	.LBB430:
 1042 002c 80ED5D7A 		vstr.32	s14, [r0, #372]
 1043              	.LVL60:
 1044              		.loc 3 34 14 view .LVU311
 1045              	.LBE430:
 1046              	.LBE437:
 167:Dattorro.cpp  ****     leftApf2.setGain(diffusion2);
 1047              		.loc 1 167 5 is_stmt 1 view .LVU312
 1048              	.LBB438:
 1049              	.LBI431:
  33:dsp/delays/AllpassFilter.hpp ****         gain = newGain;
 1050              		.loc 3 33 10 view .LVU313
 1051              	.LBB433:
 1052              		.loc 3 34 9 view .LVU314
 1053              		.loc 3 34 9 is_stmt 0 view .LVU315
 1054              	.LBE433:
 1055              	.LBE438:
 168:Dattorro.cpp  ****     rightApf1.setGain(-diffusion1);
 1056              		.loc 1 168 5 is_stmt 1 view .LVU316
ARM GAS  C:\Users\digit\AppData\Local\Temp\ccMK4Fcw.s 			page 29


 1057              	.LBB439:
 1058              	.LBI439:
  33:dsp/delays/AllpassFilter.hpp ****         gain = newGain;
 1059              		.loc 3 33 10 view .LVU317
 1060              	.LBB440:
 1061              		.loc 3 34 9 view .LVU318
 1062              		.loc 3 34 14 is_stmt 0 view .LVU319
 1063 0030 80EDAD7A 		vstr.32	s14, [r0, #692]
 1064              	.LVL61:
 1065              		.loc 3 34 14 view .LVU320
 1066              	.LBE440:
 1067              	.LBE439:
 169:Dattorro.cpp  ****     rightApf2.setGain(diffusion2);
 1068              		.loc 1 169 5 is_stmt 1 view .LVU321
 1069              	.LBB441:
 1070              	.LBI434:
  33:dsp/delays/AllpassFilter.hpp ****         gain = newGain;
 1071              		.loc 3 33 10 view .LVU322
 1072              	.LBB436:
 1073              		.loc 3 34 9 view .LVU323
 1074              		.loc 3 34 9 is_stmt 0 view .LVU324
 1075              	.LBE436:
 1076              	.LBE441:
 170:Dattorro.cpp  **** }
 1077              		.loc 1 170 1 view .LVU325
 1078 0034 7047     		bx	lr
 1079              	.L54:
 1080 0036 00BF     		.align	2
 1081              	.L53:
 1082 0038 3333333F 		.word	1060320051
 1083 003c 00000000 		.word	0
 1084 0040 00000000 		.word	.LANCHOR0
 1085 0044 00000000 		.word	.LANCHOR1
 1086              		.cfi_endproc
 1087              	.LFE4786:
 1089              		.section	.text._ZN16Dattorro1997Tank5clearEv,"ax",%progbits
 1090              		.align	1
 1091              		.p2align 2,,3
 1092              		.global	_ZN16Dattorro1997Tank5clearEv
 1093              		.syntax unified
 1094              		.thumb
 1095              		.thumb_func
 1096              		.fpu fpv5-d16
 1098              	_ZN16Dattorro1997Tank5clearEv:
 1099              	.LVL62:
 1100              	.LFB4787:
 171:Dattorro.cpp  **** 
 172:Dattorro.cpp  **** void Dattorro1997Tank::clear() {
 1101              		.loc 1 172 32 is_stmt 1 view -0
 1102              		.cfi_startproc
 1103              		@ args = 0, pretend = 0, frame = 0
 1104              		@ frame_needed = 0, uses_anonymous_args = 0
 173:Dattorro.cpp  ****     leftApf1.clear();
 1105              		.loc 1 173 5 view .LVU327
 172:Dattorro.cpp  ****     leftApf1.clear();
 1106              		.loc 1 172 32 is_stmt 0 view .LVU328
 1107 0000 38B5     		push	{r3, r4, r5, lr}
ARM GAS  C:\Users\digit\AppData\Local\Temp\ccMK4Fcw.s 			page 30


 1108              		.cfi_def_cfa_offset 16
 1109              		.cfi_offset 3, -16
 1110              		.cfi_offset 4, -12
 1111              		.cfi_offset 5, -8
 1112              		.cfi_offset 14, -4
 172:Dattorro.cpp  ****     leftApf1.clear();
 1113              		.loc 1 172 32 view .LVU329
 1114 0002 0446     		mov	r4, r0
 1115              	.LVL63:
 1116              	.LBB442:
 1117              	.LBI442:
  25:dsp/delays/AllpassFilter.hpp ****         input = 0;
 1118              		.loc 3 25 10 is_stmt 1 view .LVU330
 1119              	.LBB443:
  26:dsp/delays/AllpassFilter.hpp ****         output = 0;
 1120              		.loc 3 26 9 view .LVU331
  26:dsp/delays/AllpassFilter.hpp ****         output = 0;
 1121              		.loc 3 26 15 is_stmt 0 view .LVU332
 1122 0004 0025     		movs	r5, #0
 1123              	.LBE443:
 1124              	.LBE442:
 174:Dattorro.cpp  ****     leftDelay1.clear();
 175:Dattorro.cpp  ****     leftHighCutFilter.clear();
 1125              		.loc 1 175 28 view .LVU333
 1126 0006 00F5D870 		add	r0, r0, #432
 1127              	.LVL64:
 1128              	.LBB447:
 1129              	.LBB446:
  26:dsp/delays/AllpassFilter.hpp ****         output = 0;
 1130              		.loc 3 26 15 view .LVU334
 1131 000a C4F83C51 		str	r5, [r4, #316]	@ float
  27:dsp/delays/AllpassFilter.hpp ****         _inSum = 0;
 1132              		.loc 3 27 9 is_stmt 1 view .LVU335
  27:dsp/delays/AllpassFilter.hpp ****         _inSum = 0;
 1133              		.loc 3 27 16 is_stmt 0 view .LVU336
 1134 000e C4F84051 		str	r5, [r4, #320]	@ float
  28:dsp/delays/AllpassFilter.hpp ****         _outSum = 0;
 1135              		.loc 3 28 9 is_stmt 1 view .LVU337
  28:dsp/delays/AllpassFilter.hpp ****         _outSum = 0;
 1136              		.loc 3 28 16 is_stmt 0 view .LVU338
 1137 0012 C4F87851 		str	r5, [r4, #376]	@ float
  29:dsp/delays/AllpassFilter.hpp ****         delay.clear();
 1138              		.loc 3 29 9 is_stmt 1 view .LVU339
  29:dsp/delays/AllpassFilter.hpp ****         delay.clear();
 1139              		.loc 3 29 17 is_stmt 0 view .LVU340
 1140 0016 C4F87C51 		str	r5, [r4, #380]	@ float
  30:dsp/delays/AllpassFilter.hpp ****     }
 1141              		.loc 3 30 9 is_stmt 1 view .LVU341
 1142              	.LVL65:
 1143              	.LBB444:
 1144              	.LBI444:
 1145              		.file 4 "dsp/delays/InterpDelay.hpp"
   1:dsp/delays/InterpDelay.hpp **** #pragma once
   2:dsp/delays/InterpDelay.hpp **** #include <vector>
   3:dsp/delays/InterpDelay.hpp **** #include <cstdint>
   4:dsp/delays/InterpDelay.hpp **** #include "../../utilities/Utilities.hpp"
   5:dsp/delays/InterpDelay.hpp **** 
ARM GAS  C:\Users\digit\AppData\Local\Temp\ccMK4Fcw.s 			page 31


   6:dsp/delays/InterpDelay.hpp **** extern float DSY_SDRAM_BSS sdramData[32][200000];
   7:dsp/delays/InterpDelay.hpp **** extern unsigned int count;
   8:dsp/delays/InterpDelay.hpp **** extern bool hold;
   9:dsp/delays/InterpDelay.hpp **** 
  10:dsp/delays/InterpDelay.hpp **** class InterpDelay {
  11:dsp/delays/InterpDelay.hpp **** public:
  12:dsp/delays/InterpDelay.hpp ****     float input = 0.;
  13:dsp/delays/InterpDelay.hpp ****     float output = 0.;
  14:dsp/delays/InterpDelay.hpp ****     int bufferNumber = 0;
  15:dsp/delays/InterpDelay.hpp ****     int r = 0;
  16:dsp/delays/InterpDelay.hpp ****     int upperR = 0;
  17:dsp/delays/InterpDelay.hpp ****     int j = 0;
  18:dsp/delays/InterpDelay.hpp ****     float dataR = 0.f;
  19:dsp/delays/InterpDelay.hpp ****     float dataUpperR = 0.f;
  20:dsp/delays/InterpDelay.hpp **** 
  21:dsp/delays/InterpDelay.hpp ****     InterpDelay(unsigned int maxLength = 512, unsigned int initDelayTime = 0) {
  22:dsp/delays/InterpDelay.hpp ****         l = maxLength;
  23:dsp/delays/InterpDelay.hpp **** 
  24:dsp/delays/InterpDelay.hpp ****         bufferNumber = ++count;
  25:dsp/delays/InterpDelay.hpp **** 
  26:dsp/delays/InterpDelay.hpp ****         setDelayTime(initDelayTime);
  27:dsp/delays/InterpDelay.hpp ****     }
  28:dsp/delays/InterpDelay.hpp **** 
  29:dsp/delays/InterpDelay.hpp ****     void process() {
  30:dsp/delays/InterpDelay.hpp ****         sdramData[bufferNumber][w] = input;
  31:dsp/delays/InterpDelay.hpp ****         r = w - t;
  32:dsp/delays/InterpDelay.hpp ****         
  33:dsp/delays/InterpDelay.hpp ****         if (r < 0) {
  34:dsp/delays/InterpDelay.hpp ****             r += l;
  35:dsp/delays/InterpDelay.hpp ****         }
  36:dsp/delays/InterpDelay.hpp **** 
  37:dsp/delays/InterpDelay.hpp ****         // if (r >= l) {
  38:dsp/delays/InterpDelay.hpp ****         //     r -= l;
  39:dsp/delays/InterpDelay.hpp ****         // }
  40:dsp/delays/InterpDelay.hpp **** 
  41:dsp/delays/InterpDelay.hpp ****         ++w;
  42:dsp/delays/InterpDelay.hpp ****         if (w >= l) {
  43:dsp/delays/InterpDelay.hpp ****             w = 0;
  44:dsp/delays/InterpDelay.hpp ****         }
  45:dsp/delays/InterpDelay.hpp **** 
  46:dsp/delays/InterpDelay.hpp ****         upperR = r - 1;
  47:dsp/delays/InterpDelay.hpp ****         if (upperR < 0) {
  48:dsp/delays/InterpDelay.hpp ****             upperR += l;
  49:dsp/delays/InterpDelay.hpp ****         }
  50:dsp/delays/InterpDelay.hpp **** 
  51:dsp/delays/InterpDelay.hpp ****         // if (upperR >= l) {
  52:dsp/delays/InterpDelay.hpp ****         //     upperR -= l;
  53:dsp/delays/InterpDelay.hpp ****         // }
  54:dsp/delays/InterpDelay.hpp **** 
  55:dsp/delays/InterpDelay.hpp ****         dataR = sdramData[bufferNumber][r];
  56:dsp/delays/InterpDelay.hpp **** 
  57:dsp/delays/InterpDelay.hpp ****         dataUpperR = sdramData[bufferNumber][upperR];
  58:dsp/delays/InterpDelay.hpp **** 
  59:dsp/delays/InterpDelay.hpp ****         output = hold * (dataR + f * (dataUpperR - dataR));
  60:dsp/delays/InterpDelay.hpp ****     }
  61:dsp/delays/InterpDelay.hpp **** 
  62:dsp/delays/InterpDelay.hpp ****     float tap(int i) {
ARM GAS  C:\Users\digit\AppData\Local\Temp\ccMK4Fcw.s 			page 32


  63:dsp/delays/InterpDelay.hpp ****         j = w - i;
  64:dsp/delays/InterpDelay.hpp ****         if (j < 0) {
  65:dsp/delays/InterpDelay.hpp ****             j += l;
  66:dsp/delays/InterpDelay.hpp ****         }
  67:dsp/delays/InterpDelay.hpp ****         return sdramData[bufferNumber][j];
  68:dsp/delays/InterpDelay.hpp ****     }
  69:dsp/delays/InterpDelay.hpp **** 
  70:dsp/delays/InterpDelay.hpp ****     void setDelayTime(float newDelayTime) {
  71:dsp/delays/InterpDelay.hpp ****         if (newDelayTime >= l) {
  72:dsp/delays/InterpDelay.hpp ****             newDelayTime = l - 1;
  73:dsp/delays/InterpDelay.hpp ****         }
  74:dsp/delays/InterpDelay.hpp ****         // if (newDelayTime < 0) {
  75:dsp/delays/InterpDelay.hpp ****         //     newDelayTime = 0;
  76:dsp/delays/InterpDelay.hpp ****         // }
  77:dsp/delays/InterpDelay.hpp ****         t = newDelayTime;
  78:dsp/delays/InterpDelay.hpp ****         f = newDelayTime - t;
  79:dsp/delays/InterpDelay.hpp ****     }
  80:dsp/delays/InterpDelay.hpp **** 
  81:dsp/delays/InterpDelay.hpp ****     void clear() {
 1146              		.loc 4 81 10 view .LVU342
 1147              	.LBB445:
  82:dsp/delays/InterpDelay.hpp ****         input = 0.;
 1148              		.loc 4 82 9 view .LVU343
 1149              		.loc 4 82 15 is_stmt 0 view .LVU344
 1150 001a C4F84451 		str	r5, [r4, #324]	@ float
  83:dsp/delays/InterpDelay.hpp ****         output = 0.;
 1151              		.loc 4 83 9 is_stmt 1 view .LVU345
 1152              		.loc 4 83 16 is_stmt 0 view .LVU346
 1153 001e C4F84851 		str	r5, [r4, #328]	@ float
 1154              	.LVL66:
 1155              		.loc 4 83 16 view .LVU347
 1156              	.LBE445:
 1157              	.LBE444:
 1158              	.LBE446:
 1159              	.LBE447:
 174:Dattorro.cpp  ****     leftHighCutFilter.clear();
 1160              		.loc 1 174 5 is_stmt 1 view .LVU348
 1161              	.LBB448:
 1162              	.LBI448:
  81:dsp/delays/InterpDelay.hpp ****         input = 0.;
 1163              		.loc 4 81 10 view .LVU349
 1164              	.LBB449:
  82:dsp/delays/InterpDelay.hpp ****         output = 0.;
 1165              		.loc 4 82 9 view .LVU350
  82:dsp/delays/InterpDelay.hpp ****         output = 0.;
 1166              		.loc 4 82 15 is_stmt 0 view .LVU351
 1167 0022 C4F88051 		str	r5, [r4, #384]	@ float
 1168              		.loc 4 83 9 is_stmt 1 view .LVU352
 1169              		.loc 4 83 16 is_stmt 0 view .LVU353
 1170 0026 C4F88451 		str	r5, [r4, #388]	@ float
 1171              	.LVL67:
 1172              		.loc 4 83 16 view .LVU354
 1173              	.LBE449:
 1174              	.LBE448:
 1175              		.loc 1 175 5 is_stmt 1 view .LVU355
 1176              		.loc 1 175 28 is_stmt 0 view .LVU356
 1177 002a FFF7FEFF 		bl	_ZN15OnePoleLPFilter5clearEv
ARM GAS  C:\Users\digit\AppData\Local\Temp\ccMK4Fcw.s 			page 33


 1178              	.LVL68:
 176:Dattorro.cpp  ****     leftLowCutFilter.clear();
 1179              		.loc 1 176 5 is_stmt 1 view .LVU357
 1180              		.loc 1 176 27 is_stmt 0 view .LVU358
 1181 002e 04F5EA70 		add	r0, r4, #468
 1182 0032 FFF7FEFF 		bl	_ZN15OnePoleHPFilter5clearEv
 1183              	.LVL69:
 177:Dattorro.cpp  ****     leftApf2.clear();
 1184              		.loc 1 177 5 is_stmt 1 view .LVU359
 1185              	.LBB450:
 1186              	.LBI450:
  25:dsp/delays/AllpassFilter.hpp ****         input = 0;
 1187              		.loc 3 25 10 view .LVU360
 1188              	.LBB451:
  26:dsp/delays/AllpassFilter.hpp ****         output = 0;
 1189              		.loc 3 26 9 view .LVU361
 1190              	.LBE451:
 1191              	.LBE450:
 178:Dattorro.cpp  ****     leftDelay2.clear();
 179:Dattorro.cpp  **** 
 180:Dattorro.cpp  ****     rightApf1.clear();
 181:Dattorro.cpp  ****     rightDelay1.clear();
 182:Dattorro.cpp  ****     rightHighCutFilter.clear();;
 1192              		.loc 1 182 29 is_stmt 0 view .LVU362
 1193 0036 04F53C70 		add	r0, r4, #752
 1194              	.LBB455:
 1195              	.LBB454:
  26:dsp/delays/AllpassFilter.hpp ****         output = 0;
 1196              		.loc 3 26 15 view .LVU363
 1197 003a C4F80852 		str	r5, [r4, #520]	@ float
  27:dsp/delays/AllpassFilter.hpp ****         _inSum = 0;
 1198              		.loc 3 27 9 is_stmt 1 view .LVU364
  27:dsp/delays/AllpassFilter.hpp ****         _inSum = 0;
 1199              		.loc 3 27 16 is_stmt 0 view .LVU365
 1200 003e C4F80C52 		str	r5, [r4, #524]	@ float
  28:dsp/delays/AllpassFilter.hpp ****         _outSum = 0;
 1201              		.loc 3 28 9 is_stmt 1 view .LVU366
  28:dsp/delays/AllpassFilter.hpp ****         _outSum = 0;
 1202              		.loc 3 28 16 is_stmt 0 view .LVU367
 1203 0042 C4F84452 		str	r5, [r4, #580]	@ float
  29:dsp/delays/AllpassFilter.hpp ****         delay.clear();
 1204              		.loc 3 29 9 is_stmt 1 view .LVU368
  29:dsp/delays/AllpassFilter.hpp ****         delay.clear();
 1205              		.loc 3 29 17 is_stmt 0 view .LVU369
 1206 0046 C4F84852 		str	r5, [r4, #584]	@ float
  30:dsp/delays/AllpassFilter.hpp ****     }
 1207              		.loc 3 30 9 is_stmt 1 view .LVU370
 1208              	.LVL70:
 1209              	.LBB452:
 1210              	.LBI452:
  81:dsp/delays/InterpDelay.hpp ****         input = 0.;
 1211              		.loc 4 81 10 view .LVU371
 1212              	.LBB453:
  82:dsp/delays/InterpDelay.hpp ****         output = 0.;
 1213              		.loc 4 82 9 view .LVU372
  82:dsp/delays/InterpDelay.hpp ****         output = 0.;
 1214              		.loc 4 82 15 is_stmt 0 view .LVU373
ARM GAS  C:\Users\digit\AppData\Local\Temp\ccMK4Fcw.s 			page 34


 1215 004a C4F81052 		str	r5, [r4, #528]	@ float
 1216              		.loc 4 83 9 is_stmt 1 view .LVU374
 1217              		.loc 4 83 16 is_stmt 0 view .LVU375
 1218 004e C4F81452 		str	r5, [r4, #532]	@ float
 1219              	.LVL71:
 1220              		.loc 4 83 16 view .LVU376
 1221              	.LBE453:
 1222              	.LBE452:
 1223              	.LBE454:
 1224              	.LBE455:
 178:Dattorro.cpp  **** 
 1225              		.loc 1 178 5 is_stmt 1 view .LVU377
 1226              	.LBB456:
 1227              	.LBI456:
  81:dsp/delays/InterpDelay.hpp ****         input = 0.;
 1228              		.loc 4 81 10 view .LVU378
 1229              	.LBB457:
  82:dsp/delays/InterpDelay.hpp ****         output = 0.;
 1230              		.loc 4 82 9 view .LVU379
  82:dsp/delays/InterpDelay.hpp ****         output = 0.;
 1231              		.loc 4 82 15 is_stmt 0 view .LVU380
 1232 0052 C4F84C52 		str	r5, [r4, #588]	@ float
 1233              		.loc 4 83 9 is_stmt 1 view .LVU381
 1234              		.loc 4 83 16 is_stmt 0 view .LVU382
 1235 0056 C4F85052 		str	r5, [r4, #592]	@ float
 1236              	.LVL72:
 1237              		.loc 4 83 16 view .LVU383
 1238              	.LBE457:
 1239              	.LBE456:
 180:Dattorro.cpp  ****     rightDelay1.clear();
 1240              		.loc 1 180 5 is_stmt 1 view .LVU384
 1241              	.LBB458:
 1242              	.LBI458:
  25:dsp/delays/AllpassFilter.hpp ****         input = 0;
 1243              		.loc 3 25 10 view .LVU385
 1244              	.LBB459:
  26:dsp/delays/AllpassFilter.hpp ****         output = 0;
 1245              		.loc 3 26 9 view .LVU386
  26:dsp/delays/AllpassFilter.hpp ****         output = 0;
 1246              		.loc 3 26 15 is_stmt 0 view .LVU387
 1247 005a C4F87C52 		str	r5, [r4, #636]	@ float
  27:dsp/delays/AllpassFilter.hpp ****         _inSum = 0;
 1248              		.loc 3 27 9 is_stmt 1 view .LVU388
  27:dsp/delays/AllpassFilter.hpp ****         _inSum = 0;
 1249              		.loc 3 27 16 is_stmt 0 view .LVU389
 1250 005e C4F88052 		str	r5, [r4, #640]	@ float
  28:dsp/delays/AllpassFilter.hpp ****         _outSum = 0;
 1251              		.loc 3 28 9 is_stmt 1 view .LVU390
  28:dsp/delays/AllpassFilter.hpp ****         _outSum = 0;
 1252              		.loc 3 28 16 is_stmt 0 view .LVU391
 1253 0062 C4F8B852 		str	r5, [r4, #696]	@ float
  29:dsp/delays/AllpassFilter.hpp ****         delay.clear();
 1254              		.loc 3 29 9 is_stmt 1 view .LVU392
  29:dsp/delays/AllpassFilter.hpp ****         delay.clear();
 1255              		.loc 3 29 17 is_stmt 0 view .LVU393
 1256 0066 C4F8BC52 		str	r5, [r4, #700]	@ float
  30:dsp/delays/AllpassFilter.hpp ****     }
ARM GAS  C:\Users\digit\AppData\Local\Temp\ccMK4Fcw.s 			page 35


 1257              		.loc 3 30 9 is_stmt 1 view .LVU394
 1258              	.LVL73:
 1259              	.LBB460:
 1260              	.LBI460:
  81:dsp/delays/InterpDelay.hpp ****         input = 0.;
 1261              		.loc 4 81 10 view .LVU395
 1262              	.LBB461:
  82:dsp/delays/InterpDelay.hpp ****         output = 0.;
 1263              		.loc 4 82 9 view .LVU396
  82:dsp/delays/InterpDelay.hpp ****         output = 0.;
 1264              		.loc 4 82 15 is_stmt 0 view .LVU397
 1265 006a C4F88452 		str	r5, [r4, #644]	@ float
 1266              		.loc 4 83 9 is_stmt 1 view .LVU398
 1267              		.loc 4 83 16 is_stmt 0 view .LVU399
 1268 006e C4F88852 		str	r5, [r4, #648]	@ float
 1269              	.LVL74:
 1270              		.loc 4 83 16 view .LVU400
 1271              	.LBE461:
 1272              	.LBE460:
 1273              	.LBE459:
 1274              	.LBE458:
 181:Dattorro.cpp  ****     rightHighCutFilter.clear();;
 1275              		.loc 1 181 5 is_stmt 1 view .LVU401
 1276              	.LBB462:
 1277              	.LBI462:
  81:dsp/delays/InterpDelay.hpp ****         input = 0.;
 1278              		.loc 4 81 10 view .LVU402
 1279              	.LBB463:
  82:dsp/delays/InterpDelay.hpp ****         output = 0.;
 1280              		.loc 4 82 9 view .LVU403
  82:dsp/delays/InterpDelay.hpp ****         output = 0.;
 1281              		.loc 4 82 15 is_stmt 0 view .LVU404
 1282 0072 C4F8C052 		str	r5, [r4, #704]	@ float
 1283              		.loc 4 83 9 is_stmt 1 view .LVU405
 1284              		.loc 4 83 16 is_stmt 0 view .LVU406
 1285 0076 C4F8C452 		str	r5, [r4, #708]	@ float
 1286              	.LVL75:
 1287              		.loc 4 83 16 view .LVU407
 1288              	.LBE463:
 1289              	.LBE462:
 1290              		.loc 1 182 5 is_stmt 1 view .LVU408
 1291              		.loc 1 182 29 is_stmt 0 view .LVU409
 1292 007a FFF7FEFF 		bl	_ZN15OnePoleLPFilter5clearEv
 1293              	.LVL76:
 1294              		.loc 1 182 32 is_stmt 1 view .LVU410
 183:Dattorro.cpp  ****     rightLowCutFilter.clear();
 1295              		.loc 1 183 5 view .LVU411
 1296              		.loc 1 183 28 is_stmt 0 view .LVU412
 1297 007e 04F54570 		add	r0, r4, #788
 1298 0082 FFF7FEFF 		bl	_ZN15OnePoleHPFilter5clearEv
 1299              	.LVL77:
 184:Dattorro.cpp  ****     rightApf2.clear();
 1300              		.loc 1 184 5 is_stmt 1 view .LVU413
 1301              	.LBB464:
 1302              	.LBI464:
  25:dsp/delays/AllpassFilter.hpp ****         input = 0;
 1303              		.loc 3 25 10 view .LVU414
ARM GAS  C:\Users\digit\AppData\Local\Temp\ccMK4Fcw.s 			page 36


 1304              	.LBB465:
  26:dsp/delays/AllpassFilter.hpp ****         output = 0;
 1305              		.loc 3 26 9 view .LVU415
 1306              	.LBE465:
 1307              	.LBE464:
 185:Dattorro.cpp  ****     rightDelay2.clear();
 186:Dattorro.cpp  **** 
 187:Dattorro.cpp  ****     leftOutDCBlock.clear();
 1308              		.loc 1 187 25 is_stmt 0 view .LVU416
 1309 0086 04F56F70 		add	r0, r4, #956
 1310              	.LBB469:
 1311              	.LBB468:
  26:dsp/delays/AllpassFilter.hpp ****         output = 0;
 1312              		.loc 3 26 15 view .LVU417
 1313 008a C4F84853 		str	r5, [r4, #840]	@ float
  27:dsp/delays/AllpassFilter.hpp ****         _inSum = 0;
 1314              		.loc 3 27 9 is_stmt 1 view .LVU418
  27:dsp/delays/AllpassFilter.hpp ****         _inSum = 0;
 1315              		.loc 3 27 16 is_stmt 0 view .LVU419
 1316 008e C4F84C53 		str	r5, [r4, #844]	@ float
  28:dsp/delays/AllpassFilter.hpp ****         _outSum = 0;
 1317              		.loc 3 28 9 is_stmt 1 view .LVU420
  28:dsp/delays/AllpassFilter.hpp ****         _outSum = 0;
 1318              		.loc 3 28 16 is_stmt 0 view .LVU421
 1319 0092 C4F88453 		str	r5, [r4, #900]	@ float
  29:dsp/delays/AllpassFilter.hpp ****         delay.clear();
 1320              		.loc 3 29 9 is_stmt 1 view .LVU422
  29:dsp/delays/AllpassFilter.hpp ****         delay.clear();
 1321              		.loc 3 29 17 is_stmt 0 view .LVU423
 1322 0096 C4F88853 		str	r5, [r4, #904]	@ float
  30:dsp/delays/AllpassFilter.hpp ****     }
 1323              		.loc 3 30 9 is_stmt 1 view .LVU424
 1324              	.LVL78:
 1325              	.LBB466:
 1326              	.LBI466:
  81:dsp/delays/InterpDelay.hpp ****         input = 0.;
 1327              		.loc 4 81 10 view .LVU425
 1328              	.LBB467:
  82:dsp/delays/InterpDelay.hpp ****         output = 0.;
 1329              		.loc 4 82 9 view .LVU426
  82:dsp/delays/InterpDelay.hpp ****         output = 0.;
 1330              		.loc 4 82 15 is_stmt 0 view .LVU427
 1331 009a C4F85053 		str	r5, [r4, #848]	@ float
 1332              		.loc 4 83 9 is_stmt 1 view .LVU428
 1333              		.loc 4 83 16 is_stmt 0 view .LVU429
 1334 009e C4F85453 		str	r5, [r4, #852]	@ float
 1335              	.LVL79:
 1336              		.loc 4 83 16 view .LVU430
 1337              	.LBE467:
 1338              	.LBE466:
 1339              	.LBE468:
 1340              	.LBE469:
 185:Dattorro.cpp  **** 
 1341              		.loc 1 185 5 is_stmt 1 view .LVU431
 1342              	.LBB470:
 1343              	.LBI470:
  81:dsp/delays/InterpDelay.hpp ****         input = 0.;
ARM GAS  C:\Users\digit\AppData\Local\Temp\ccMK4Fcw.s 			page 37


 1344              		.loc 4 81 10 view .LVU432
 1345              	.LBB471:
  82:dsp/delays/InterpDelay.hpp ****         output = 0.;
 1346              		.loc 4 82 9 view .LVU433
  82:dsp/delays/InterpDelay.hpp ****         output = 0.;
 1347              		.loc 4 82 15 is_stmt 0 view .LVU434
 1348 00a2 C4F88C53 		str	r5, [r4, #908]	@ float
 1349              		.loc 4 83 9 is_stmt 1 view .LVU435
 1350              		.loc 4 83 16 is_stmt 0 view .LVU436
 1351 00a6 C4F89053 		str	r5, [r4, #912]	@ float
 1352              	.LVL80:
 1353              		.loc 4 83 16 view .LVU437
 1354              	.LBE471:
 1355              	.LBE470:
 1356              		.loc 1 187 5 is_stmt 1 view .LVU438
 1357              		.loc 1 187 25 is_stmt 0 view .LVU439
 1358 00aa FFF7FEFF 		bl	_ZN15OnePoleHPFilter5clearEv
 1359              	.LVL81:
 188:Dattorro.cpp  ****     rightOutDCBlock.clear();
 1360              		.loc 1 188 5 is_stmt 1 view .LVU440
 1361              		.loc 1 188 26 is_stmt 0 view .LVU441
 1362 00ae 04F57C70 		add	r0, r4, #1008
 1363 00b2 FFF7FEFF 		bl	_ZN15OnePoleHPFilter5clearEv
 1364              	.LVL82:
 189:Dattorro.cpp  **** 
 190:Dattorro.cpp  ****     leftSum = 0.0;
 1365              		.loc 1 190 5 is_stmt 1 view .LVU442
 1366              		.loc 1 190 13 is_stmt 0 view .LVU443
 1367 00b6 C4F83451 		str	r5, [r4, #308]	@ float
 191:Dattorro.cpp  ****     rightSum = 0.0;
 1368              		.loc 1 191 5 is_stmt 1 view .LVU444
 1369              		.loc 1 191 14 is_stmt 0 view .LVU445
 1370 00ba C4F83851 		str	r5, [r4, #312]	@ float
 192:Dattorro.cpp  **** }
 1371              		.loc 1 192 1 view .LVU446
 1372 00be 38BD     		pop	{r3, r4, r5, pc}
 1373              		.loc 1 192 1 view .LVU447
 1374              		.cfi_endproc
 1375              	.LFE4787:
 1377              		.section	.text._ZN16Dattorro1997Tank11calcMaxTimeEf,"ax",%progbits
 1378              		.align	1
 1379              		.p2align 2,,3
 1380              		.global	_ZN16Dattorro1997Tank11calcMaxTimeEf
 1381              		.syntax unified
 1382              		.thumb
 1383              		.thumb_func
 1384              		.fpu fpv5-d16
 1386              	_ZN16Dattorro1997Tank11calcMaxTimeEf:
 1387              	.LVL83:
 1388              	.LFB4788:
 193:Dattorro.cpp  **** 
 194:Dattorro.cpp  **** int maxScaledOutputTap = 0;
 195:Dattorro.cpp  **** 
 196:Dattorro.cpp  **** int Dattorro1997Tank::calcMaxTime(float delayTime) {
 1389              		.loc 1 196 52 is_stmt 1 view -0
 1390              		.cfi_startproc
 1391              		@ args = 0, pretend = 0, frame = 0
ARM GAS  C:\Users\digit\AppData\Local\Temp\ccMK4Fcw.s 			page 38


 1392              		@ frame_needed = 0, uses_anonymous_args = 0
 1393              		@ link register save eliminated.
 197:Dattorro.cpp  ****     maxScaledOutputTap = *std::max_element(scaledOutputTaps.begin(),
 1394              		.loc 1 197 5 view .LVU449
 1395              	.LBB492:
 1396              	.LBI492:
 1397              		.file 5 "c:\\program files\\daisytoolchain\\arm-none-eabi\\include\\c++\\10.2.1\\bits\\stl_algo.h"
   1:c:\program files\daisytoolchain\arm-none-eabi\include\c++\10.2.1\bits\stl_algo.h **** // Algorithm implementation -*- C++ -*-
   2:c:\program files\daisytoolchain\arm-none-eabi\include\c++\10.2.1\bits\stl_algo.h **** 
   3:c:\program files\daisytoolchain\arm-none-eabi\include\c++\10.2.1\bits\stl_algo.h **** // Copyright (C) 2001-2020 Free Software Foundation, Inc.
   4:c:\program files\daisytoolchain\arm-none-eabi\include\c++\10.2.1\bits\stl_algo.h **** //
   5:c:\program files\daisytoolchain\arm-none-eabi\include\c++\10.2.1\bits\stl_algo.h **** // This file is part of the GNU ISO C++ Library.  This library is free
   6:c:\program files\daisytoolchain\arm-none-eabi\include\c++\10.2.1\bits\stl_algo.h **** // software; you can redistribute it and/or modify it under the
   7:c:\program files\daisytoolchain\arm-none-eabi\include\c++\10.2.1\bits\stl_algo.h **** // terms of the GNU General Public License as published by the
   8:c:\program files\daisytoolchain\arm-none-eabi\include\c++\10.2.1\bits\stl_algo.h **** // Free Software Foundation; either version 3, or (at your option)
   9:c:\program files\daisytoolchain\arm-none-eabi\include\c++\10.2.1\bits\stl_algo.h **** // any later version.
  10:c:\program files\daisytoolchain\arm-none-eabi\include\c++\10.2.1\bits\stl_algo.h **** 
  11:c:\program files\daisytoolchain\arm-none-eabi\include\c++\10.2.1\bits\stl_algo.h **** // This library is distributed in the hope that it will be useful,
  12:c:\program files\daisytoolchain\arm-none-eabi\include\c++\10.2.1\bits\stl_algo.h **** // but WITHOUT ANY WARRANTY; without even the implied warranty of
  13:c:\program files\daisytoolchain\arm-none-eabi\include\c++\10.2.1\bits\stl_algo.h **** // MERCHANTABILITY or FITNESS FOR A PARTICULAR PURPOSE.  See the
  14:c:\program files\daisytoolchain\arm-none-eabi\include\c++\10.2.1\bits\stl_algo.h **** // GNU General Public License for more details.
  15:c:\program files\daisytoolchain\arm-none-eabi\include\c++\10.2.1\bits\stl_algo.h **** 
  16:c:\program files\daisytoolchain\arm-none-eabi\include\c++\10.2.1\bits\stl_algo.h **** // Under Section 7 of GPL version 3, you are granted additional
  17:c:\program files\daisytoolchain\arm-none-eabi\include\c++\10.2.1\bits\stl_algo.h **** // permissions described in the GCC Runtime Library Exception, version
  18:c:\program files\daisytoolchain\arm-none-eabi\include\c++\10.2.1\bits\stl_algo.h **** // 3.1, as published by the Free Software Foundation.
  19:c:\program files\daisytoolchain\arm-none-eabi\include\c++\10.2.1\bits\stl_algo.h **** 
  20:c:\program files\daisytoolchain\arm-none-eabi\include\c++\10.2.1\bits\stl_algo.h **** // You should have received a copy of the GNU General Public License and
  21:c:\program files\daisytoolchain\arm-none-eabi\include\c++\10.2.1\bits\stl_algo.h **** // a copy of the GCC Runtime Library Exception along with this program;
  22:c:\program files\daisytoolchain\arm-none-eabi\include\c++\10.2.1\bits\stl_algo.h **** // see the files COPYING3 and COPYING.RUNTIME respectively.  If not, see
  23:c:\program files\daisytoolchain\arm-none-eabi\include\c++\10.2.1\bits\stl_algo.h **** // <http://www.gnu.org/licenses/>.
  24:c:\program files\daisytoolchain\arm-none-eabi\include\c++\10.2.1\bits\stl_algo.h **** 
  25:c:\program files\daisytoolchain\arm-none-eabi\include\c++\10.2.1\bits\stl_algo.h **** /*
  26:c:\program files\daisytoolchain\arm-none-eabi\include\c++\10.2.1\bits\stl_algo.h ****  *
  27:c:\program files\daisytoolchain\arm-none-eabi\include\c++\10.2.1\bits\stl_algo.h ****  * Copyright (c) 1994
  28:c:\program files\daisytoolchain\arm-none-eabi\include\c++\10.2.1\bits\stl_algo.h ****  * Hewlett-Packard Company
  29:c:\program files\daisytoolchain\arm-none-eabi\include\c++\10.2.1\bits\stl_algo.h ****  *
  30:c:\program files\daisytoolchain\arm-none-eabi\include\c++\10.2.1\bits\stl_algo.h ****  * Permission to use, copy, modify, distribute and sell this software
  31:c:\program files\daisytoolchain\arm-none-eabi\include\c++\10.2.1\bits\stl_algo.h ****  * and its documentation for any purpose is hereby granted without fee,
  32:c:\program files\daisytoolchain\arm-none-eabi\include\c++\10.2.1\bits\stl_algo.h ****  * provided that the above copyright notice appear in all copies and
  33:c:\program files\daisytoolchain\arm-none-eabi\include\c++\10.2.1\bits\stl_algo.h ****  * that both that copyright notice and this permission notice appear
  34:c:\program files\daisytoolchain\arm-none-eabi\include\c++\10.2.1\bits\stl_algo.h ****  * in supporting documentation.  Hewlett-Packard Company makes no
  35:c:\program files\daisytoolchain\arm-none-eabi\include\c++\10.2.1\bits\stl_algo.h ****  * representations about the suitability of this software for any
  36:c:\program files\daisytoolchain\arm-none-eabi\include\c++\10.2.1\bits\stl_algo.h ****  * purpose.  It is provided "as is" without express or implied warranty.
  37:c:\program files\daisytoolchain\arm-none-eabi\include\c++\10.2.1\bits\stl_algo.h ****  *
  38:c:\program files\daisytoolchain\arm-none-eabi\include\c++\10.2.1\bits\stl_algo.h ****  *
  39:c:\program files\daisytoolchain\arm-none-eabi\include\c++\10.2.1\bits\stl_algo.h ****  * Copyright (c) 1996
  40:c:\program files\daisytoolchain\arm-none-eabi\include\c++\10.2.1\bits\stl_algo.h ****  * Silicon Graphics Computer Systems, Inc.
  41:c:\program files\daisytoolchain\arm-none-eabi\include\c++\10.2.1\bits\stl_algo.h ****  *
  42:c:\program files\daisytoolchain\arm-none-eabi\include\c++\10.2.1\bits\stl_algo.h ****  * Permission to use, copy, modify, distribute and sell this software
  43:c:\program files\daisytoolchain\arm-none-eabi\include\c++\10.2.1\bits\stl_algo.h ****  * and its documentation for any purpose is hereby granted without fee,
  44:c:\program files\daisytoolchain\arm-none-eabi\include\c++\10.2.1\bits\stl_algo.h ****  * provided that the above copyright notice appear in all copies and
  45:c:\program files\daisytoolchain\arm-none-eabi\include\c++\10.2.1\bits\stl_algo.h ****  * that both that copyright notice and this permission notice appear
  46:c:\program files\daisytoolchain\arm-none-eabi\include\c++\10.2.1\bits\stl_algo.h ****  * in supporting documentation.  Silicon Graphics makes no
  47:c:\program files\daisytoolchain\arm-none-eabi\include\c++\10.2.1\bits\stl_algo.h ****  * representations about the suitability of this software for any
  48:c:\program files\daisytoolchain\arm-none-eabi\include\c++\10.2.1\bits\stl_algo.h ****  * purpose.  It is provided "as is" without express or implied warranty.
  49:c:\program files\daisytoolchain\arm-none-eabi\include\c++\10.2.1\bits\stl_algo.h ****  */
  50:c:\program files\daisytoolchain\arm-none-eabi\include\c++\10.2.1\bits\stl_algo.h **** 
ARM GAS  C:\Users\digit\AppData\Local\Temp\ccMK4Fcw.s 			page 39


  51:c:\program files\daisytoolchain\arm-none-eabi\include\c++\10.2.1\bits\stl_algo.h **** /** @file bits/stl_algo.h
  52:c:\program files\daisytoolchain\arm-none-eabi\include\c++\10.2.1\bits\stl_algo.h ****  *  This is an internal header file, included by other library headers.
  53:c:\program files\daisytoolchain\arm-none-eabi\include\c++\10.2.1\bits\stl_algo.h ****  *  Do not attempt to use it directly. @headername{algorithm}
  54:c:\program files\daisytoolchain\arm-none-eabi\include\c++\10.2.1\bits\stl_algo.h ****  */
  55:c:\program files\daisytoolchain\arm-none-eabi\include\c++\10.2.1\bits\stl_algo.h **** 
  56:c:\program files\daisytoolchain\arm-none-eabi\include\c++\10.2.1\bits\stl_algo.h **** #ifndef _STL_ALGO_H
  57:c:\program files\daisytoolchain\arm-none-eabi\include\c++\10.2.1\bits\stl_algo.h **** #define _STL_ALGO_H 1
  58:c:\program files\daisytoolchain\arm-none-eabi\include\c++\10.2.1\bits\stl_algo.h **** 
  59:c:\program files\daisytoolchain\arm-none-eabi\include\c++\10.2.1\bits\stl_algo.h **** #include <cstdlib>	     // for rand
  60:c:\program files\daisytoolchain\arm-none-eabi\include\c++\10.2.1\bits\stl_algo.h **** #include <bits/algorithmfwd.h>
  61:c:\program files\daisytoolchain\arm-none-eabi\include\c++\10.2.1\bits\stl_algo.h **** #include <bits/stl_heap.h>
  62:c:\program files\daisytoolchain\arm-none-eabi\include\c++\10.2.1\bits\stl_algo.h **** #include <bits/stl_tempbuf.h>  // for _Temporary_buffer
  63:c:\program files\daisytoolchain\arm-none-eabi\include\c++\10.2.1\bits\stl_algo.h **** #include <bits/predefined_ops.h>
  64:c:\program files\daisytoolchain\arm-none-eabi\include\c++\10.2.1\bits\stl_algo.h **** 
  65:c:\program files\daisytoolchain\arm-none-eabi\include\c++\10.2.1\bits\stl_algo.h **** #if __cplusplus >= 201103L
  66:c:\program files\daisytoolchain\arm-none-eabi\include\c++\10.2.1\bits\stl_algo.h **** #include <bits/uniform_int_dist.h>
  67:c:\program files\daisytoolchain\arm-none-eabi\include\c++\10.2.1\bits\stl_algo.h **** #endif
  68:c:\program files\daisytoolchain\arm-none-eabi\include\c++\10.2.1\bits\stl_algo.h **** 
  69:c:\program files\daisytoolchain\arm-none-eabi\include\c++\10.2.1\bits\stl_algo.h **** // See concept_check.h for the __glibcxx_*_requires macros.
  70:c:\program files\daisytoolchain\arm-none-eabi\include\c++\10.2.1\bits\stl_algo.h **** 
  71:c:\program files\daisytoolchain\arm-none-eabi\include\c++\10.2.1\bits\stl_algo.h **** namespace std _GLIBCXX_VISIBILITY(default)
  72:c:\program files\daisytoolchain\arm-none-eabi\include\c++\10.2.1\bits\stl_algo.h **** {
  73:c:\program files\daisytoolchain\arm-none-eabi\include\c++\10.2.1\bits\stl_algo.h **** _GLIBCXX_BEGIN_NAMESPACE_VERSION
  74:c:\program files\daisytoolchain\arm-none-eabi\include\c++\10.2.1\bits\stl_algo.h **** 
  75:c:\program files\daisytoolchain\arm-none-eabi\include\c++\10.2.1\bits\stl_algo.h ****   /// Swaps the median value of *__a, *__b and *__c under __comp to *__result
  76:c:\program files\daisytoolchain\arm-none-eabi\include\c++\10.2.1\bits\stl_algo.h ****   template<typename _Iterator, typename _Compare>
  77:c:\program files\daisytoolchain\arm-none-eabi\include\c++\10.2.1\bits\stl_algo.h ****     _GLIBCXX20_CONSTEXPR
  78:c:\program files\daisytoolchain\arm-none-eabi\include\c++\10.2.1\bits\stl_algo.h ****     void
  79:c:\program files\daisytoolchain\arm-none-eabi\include\c++\10.2.1\bits\stl_algo.h ****     __move_median_to_first(_Iterator __result,_Iterator __a, _Iterator __b,
  80:c:\program files\daisytoolchain\arm-none-eabi\include\c++\10.2.1\bits\stl_algo.h **** 			   _Iterator __c, _Compare __comp)
  81:c:\program files\daisytoolchain\arm-none-eabi\include\c++\10.2.1\bits\stl_algo.h ****     {
  82:c:\program files\daisytoolchain\arm-none-eabi\include\c++\10.2.1\bits\stl_algo.h ****       if (__comp(__a, __b))
  83:c:\program files\daisytoolchain\arm-none-eabi\include\c++\10.2.1\bits\stl_algo.h **** 	{
  84:c:\program files\daisytoolchain\arm-none-eabi\include\c++\10.2.1\bits\stl_algo.h **** 	  if (__comp(__b, __c))
  85:c:\program files\daisytoolchain\arm-none-eabi\include\c++\10.2.1\bits\stl_algo.h **** 	    std::iter_swap(__result, __b);
  86:c:\program files\daisytoolchain\arm-none-eabi\include\c++\10.2.1\bits\stl_algo.h **** 	  else if (__comp(__a, __c))
  87:c:\program files\daisytoolchain\arm-none-eabi\include\c++\10.2.1\bits\stl_algo.h **** 	    std::iter_swap(__result, __c);
  88:c:\program files\daisytoolchain\arm-none-eabi\include\c++\10.2.1\bits\stl_algo.h **** 	  else
  89:c:\program files\daisytoolchain\arm-none-eabi\include\c++\10.2.1\bits\stl_algo.h **** 	    std::iter_swap(__result, __a);
  90:c:\program files\daisytoolchain\arm-none-eabi\include\c++\10.2.1\bits\stl_algo.h **** 	}
  91:c:\program files\daisytoolchain\arm-none-eabi\include\c++\10.2.1\bits\stl_algo.h ****       else if (__comp(__a, __c))
  92:c:\program files\daisytoolchain\arm-none-eabi\include\c++\10.2.1\bits\stl_algo.h **** 	std::iter_swap(__result, __a);
  93:c:\program files\daisytoolchain\arm-none-eabi\include\c++\10.2.1\bits\stl_algo.h ****       else if (__comp(__b, __c))
  94:c:\program files\daisytoolchain\arm-none-eabi\include\c++\10.2.1\bits\stl_algo.h **** 	std::iter_swap(__result, __c);
  95:c:\program files\daisytoolchain\arm-none-eabi\include\c++\10.2.1\bits\stl_algo.h ****       else
  96:c:\program files\daisytoolchain\arm-none-eabi\include\c++\10.2.1\bits\stl_algo.h **** 	std::iter_swap(__result, __b);
  97:c:\program files\daisytoolchain\arm-none-eabi\include\c++\10.2.1\bits\stl_algo.h ****     }
  98:c:\program files\daisytoolchain\arm-none-eabi\include\c++\10.2.1\bits\stl_algo.h **** 
  99:c:\program files\daisytoolchain\arm-none-eabi\include\c++\10.2.1\bits\stl_algo.h ****   /// Provided for stable_partition to use.
 100:c:\program files\daisytoolchain\arm-none-eabi\include\c++\10.2.1\bits\stl_algo.h ****   template<typename _InputIterator, typename _Predicate>
 101:c:\program files\daisytoolchain\arm-none-eabi\include\c++\10.2.1\bits\stl_algo.h ****     _GLIBCXX20_CONSTEXPR
 102:c:\program files\daisytoolchain\arm-none-eabi\include\c++\10.2.1\bits\stl_algo.h ****     inline _InputIterator
 103:c:\program files\daisytoolchain\arm-none-eabi\include\c++\10.2.1\bits\stl_algo.h ****     __find_if_not(_InputIterator __first, _InputIterator __last,
 104:c:\program files\daisytoolchain\arm-none-eabi\include\c++\10.2.1\bits\stl_algo.h **** 		  _Predicate __pred)
 105:c:\program files\daisytoolchain\arm-none-eabi\include\c++\10.2.1\bits\stl_algo.h ****     {
 106:c:\program files\daisytoolchain\arm-none-eabi\include\c++\10.2.1\bits\stl_algo.h ****       return std::__find_if(__first, __last,
 107:c:\program files\daisytoolchain\arm-none-eabi\include\c++\10.2.1\bits\stl_algo.h **** 			    __gnu_cxx::__ops::__negate(__pred),
ARM GAS  C:\Users\digit\AppData\Local\Temp\ccMK4Fcw.s 			page 40


 108:c:\program files\daisytoolchain\arm-none-eabi\include\c++\10.2.1\bits\stl_algo.h **** 			    std::__iterator_category(__first));
 109:c:\program files\daisytoolchain\arm-none-eabi\include\c++\10.2.1\bits\stl_algo.h ****     }
 110:c:\program files\daisytoolchain\arm-none-eabi\include\c++\10.2.1\bits\stl_algo.h **** 
 111:c:\program files\daisytoolchain\arm-none-eabi\include\c++\10.2.1\bits\stl_algo.h ****   /// Like find_if_not(), but uses and updates a count of the
 112:c:\program files\daisytoolchain\arm-none-eabi\include\c++\10.2.1\bits\stl_algo.h ****   /// remaining range length instead of comparing against an end
 113:c:\program files\daisytoolchain\arm-none-eabi\include\c++\10.2.1\bits\stl_algo.h ****   /// iterator.
 114:c:\program files\daisytoolchain\arm-none-eabi\include\c++\10.2.1\bits\stl_algo.h ****   template<typename _InputIterator, typename _Predicate, typename _Distance>
 115:c:\program files\daisytoolchain\arm-none-eabi\include\c++\10.2.1\bits\stl_algo.h ****     _GLIBCXX20_CONSTEXPR
 116:c:\program files\daisytoolchain\arm-none-eabi\include\c++\10.2.1\bits\stl_algo.h ****     _InputIterator
 117:c:\program files\daisytoolchain\arm-none-eabi\include\c++\10.2.1\bits\stl_algo.h ****     __find_if_not_n(_InputIterator __first, _Distance& __len, _Predicate __pred)
 118:c:\program files\daisytoolchain\arm-none-eabi\include\c++\10.2.1\bits\stl_algo.h ****     {
 119:c:\program files\daisytoolchain\arm-none-eabi\include\c++\10.2.1\bits\stl_algo.h ****       for (; __len; --__len,  (void) ++__first)
 120:c:\program files\daisytoolchain\arm-none-eabi\include\c++\10.2.1\bits\stl_algo.h **** 	if (!__pred(__first))
 121:c:\program files\daisytoolchain\arm-none-eabi\include\c++\10.2.1\bits\stl_algo.h **** 	  break;
 122:c:\program files\daisytoolchain\arm-none-eabi\include\c++\10.2.1\bits\stl_algo.h ****       return __first;
 123:c:\program files\daisytoolchain\arm-none-eabi\include\c++\10.2.1\bits\stl_algo.h ****     }
 124:c:\program files\daisytoolchain\arm-none-eabi\include\c++\10.2.1\bits\stl_algo.h **** 
 125:c:\program files\daisytoolchain\arm-none-eabi\include\c++\10.2.1\bits\stl_algo.h ****   // set_difference
 126:c:\program files\daisytoolchain\arm-none-eabi\include\c++\10.2.1\bits\stl_algo.h ****   // set_intersection
 127:c:\program files\daisytoolchain\arm-none-eabi\include\c++\10.2.1\bits\stl_algo.h ****   // set_symmetric_difference
 128:c:\program files\daisytoolchain\arm-none-eabi\include\c++\10.2.1\bits\stl_algo.h ****   // set_union
 129:c:\program files\daisytoolchain\arm-none-eabi\include\c++\10.2.1\bits\stl_algo.h ****   // for_each
 130:c:\program files\daisytoolchain\arm-none-eabi\include\c++\10.2.1\bits\stl_algo.h ****   // find
 131:c:\program files\daisytoolchain\arm-none-eabi\include\c++\10.2.1\bits\stl_algo.h ****   // find_if
 132:c:\program files\daisytoolchain\arm-none-eabi\include\c++\10.2.1\bits\stl_algo.h ****   // find_first_of
 133:c:\program files\daisytoolchain\arm-none-eabi\include\c++\10.2.1\bits\stl_algo.h ****   // adjacent_find
 134:c:\program files\daisytoolchain\arm-none-eabi\include\c++\10.2.1\bits\stl_algo.h ****   // count
 135:c:\program files\daisytoolchain\arm-none-eabi\include\c++\10.2.1\bits\stl_algo.h ****   // count_if
 136:c:\program files\daisytoolchain\arm-none-eabi\include\c++\10.2.1\bits\stl_algo.h ****   // search
 137:c:\program files\daisytoolchain\arm-none-eabi\include\c++\10.2.1\bits\stl_algo.h **** 
 138:c:\program files\daisytoolchain\arm-none-eabi\include\c++\10.2.1\bits\stl_algo.h ****   template<typename _ForwardIterator1, typename _ForwardIterator2,
 139:c:\program files\daisytoolchain\arm-none-eabi\include\c++\10.2.1\bits\stl_algo.h **** 	   typename _BinaryPredicate>
 140:c:\program files\daisytoolchain\arm-none-eabi\include\c++\10.2.1\bits\stl_algo.h ****     _GLIBCXX20_CONSTEXPR
 141:c:\program files\daisytoolchain\arm-none-eabi\include\c++\10.2.1\bits\stl_algo.h ****     _ForwardIterator1
 142:c:\program files\daisytoolchain\arm-none-eabi\include\c++\10.2.1\bits\stl_algo.h ****     __search(_ForwardIterator1 __first1, _ForwardIterator1 __last1,
 143:c:\program files\daisytoolchain\arm-none-eabi\include\c++\10.2.1\bits\stl_algo.h **** 	     _ForwardIterator2 __first2, _ForwardIterator2 __last2,
 144:c:\program files\daisytoolchain\arm-none-eabi\include\c++\10.2.1\bits\stl_algo.h **** 	     _BinaryPredicate  __predicate)
 145:c:\program files\daisytoolchain\arm-none-eabi\include\c++\10.2.1\bits\stl_algo.h ****     {
 146:c:\program files\daisytoolchain\arm-none-eabi\include\c++\10.2.1\bits\stl_algo.h ****       // Test for empty ranges
 147:c:\program files\daisytoolchain\arm-none-eabi\include\c++\10.2.1\bits\stl_algo.h ****       if (__first1 == __last1 || __first2 == __last2)
 148:c:\program files\daisytoolchain\arm-none-eabi\include\c++\10.2.1\bits\stl_algo.h **** 	return __first1;
 149:c:\program files\daisytoolchain\arm-none-eabi\include\c++\10.2.1\bits\stl_algo.h **** 
 150:c:\program files\daisytoolchain\arm-none-eabi\include\c++\10.2.1\bits\stl_algo.h ****       // Test for a pattern of length 1.
 151:c:\program files\daisytoolchain\arm-none-eabi\include\c++\10.2.1\bits\stl_algo.h ****       _ForwardIterator2 __p1(__first2);
 152:c:\program files\daisytoolchain\arm-none-eabi\include\c++\10.2.1\bits\stl_algo.h ****       if (++__p1 == __last2)
 153:c:\program files\daisytoolchain\arm-none-eabi\include\c++\10.2.1\bits\stl_algo.h **** 	return std::__find_if(__first1, __last1,
 154:c:\program files\daisytoolchain\arm-none-eabi\include\c++\10.2.1\bits\stl_algo.h **** 		__gnu_cxx::__ops::__iter_comp_iter(__predicate, __first2));
 155:c:\program files\daisytoolchain\arm-none-eabi\include\c++\10.2.1\bits\stl_algo.h **** 
 156:c:\program files\daisytoolchain\arm-none-eabi\include\c++\10.2.1\bits\stl_algo.h ****       // General case.
 157:c:\program files\daisytoolchain\arm-none-eabi\include\c++\10.2.1\bits\stl_algo.h ****       _ForwardIterator1 __current = __first1;
 158:c:\program files\daisytoolchain\arm-none-eabi\include\c++\10.2.1\bits\stl_algo.h **** 
 159:c:\program files\daisytoolchain\arm-none-eabi\include\c++\10.2.1\bits\stl_algo.h ****       for (;;)
 160:c:\program files\daisytoolchain\arm-none-eabi\include\c++\10.2.1\bits\stl_algo.h **** 	{
 161:c:\program files\daisytoolchain\arm-none-eabi\include\c++\10.2.1\bits\stl_algo.h **** 	  __first1 =
 162:c:\program files\daisytoolchain\arm-none-eabi\include\c++\10.2.1\bits\stl_algo.h **** 	    std::__find_if(__first1, __last1,
 163:c:\program files\daisytoolchain\arm-none-eabi\include\c++\10.2.1\bits\stl_algo.h **** 		__gnu_cxx::__ops::__iter_comp_iter(__predicate, __first2));
 164:c:\program files\daisytoolchain\arm-none-eabi\include\c++\10.2.1\bits\stl_algo.h **** 
ARM GAS  C:\Users\digit\AppData\Local\Temp\ccMK4Fcw.s 			page 41


 165:c:\program files\daisytoolchain\arm-none-eabi\include\c++\10.2.1\bits\stl_algo.h **** 	  if (__first1 == __last1)
 166:c:\program files\daisytoolchain\arm-none-eabi\include\c++\10.2.1\bits\stl_algo.h **** 	    return __last1;
 167:c:\program files\daisytoolchain\arm-none-eabi\include\c++\10.2.1\bits\stl_algo.h **** 
 168:c:\program files\daisytoolchain\arm-none-eabi\include\c++\10.2.1\bits\stl_algo.h **** 	  _ForwardIterator2 __p = __p1;
 169:c:\program files\daisytoolchain\arm-none-eabi\include\c++\10.2.1\bits\stl_algo.h **** 	  __current = __first1;
 170:c:\program files\daisytoolchain\arm-none-eabi\include\c++\10.2.1\bits\stl_algo.h **** 	  if (++__current == __last1)
 171:c:\program files\daisytoolchain\arm-none-eabi\include\c++\10.2.1\bits\stl_algo.h **** 	    return __last1;
 172:c:\program files\daisytoolchain\arm-none-eabi\include\c++\10.2.1\bits\stl_algo.h **** 
 173:c:\program files\daisytoolchain\arm-none-eabi\include\c++\10.2.1\bits\stl_algo.h **** 	  while (__predicate(__current, __p))
 174:c:\program files\daisytoolchain\arm-none-eabi\include\c++\10.2.1\bits\stl_algo.h **** 	    {
 175:c:\program files\daisytoolchain\arm-none-eabi\include\c++\10.2.1\bits\stl_algo.h **** 	      if (++__p == __last2)
 176:c:\program files\daisytoolchain\arm-none-eabi\include\c++\10.2.1\bits\stl_algo.h **** 		return __first1;
 177:c:\program files\daisytoolchain\arm-none-eabi\include\c++\10.2.1\bits\stl_algo.h **** 	      if (++__current == __last1)
 178:c:\program files\daisytoolchain\arm-none-eabi\include\c++\10.2.1\bits\stl_algo.h **** 		return __last1;
 179:c:\program files\daisytoolchain\arm-none-eabi\include\c++\10.2.1\bits\stl_algo.h **** 	    }
 180:c:\program files\daisytoolchain\arm-none-eabi\include\c++\10.2.1\bits\stl_algo.h **** 	  ++__first1;
 181:c:\program files\daisytoolchain\arm-none-eabi\include\c++\10.2.1\bits\stl_algo.h **** 	}
 182:c:\program files\daisytoolchain\arm-none-eabi\include\c++\10.2.1\bits\stl_algo.h ****       return __first1;
 183:c:\program files\daisytoolchain\arm-none-eabi\include\c++\10.2.1\bits\stl_algo.h ****     }
 184:c:\program files\daisytoolchain\arm-none-eabi\include\c++\10.2.1\bits\stl_algo.h **** 
 185:c:\program files\daisytoolchain\arm-none-eabi\include\c++\10.2.1\bits\stl_algo.h ****   // search_n
 186:c:\program files\daisytoolchain\arm-none-eabi\include\c++\10.2.1\bits\stl_algo.h **** 
 187:c:\program files\daisytoolchain\arm-none-eabi\include\c++\10.2.1\bits\stl_algo.h ****   /**
 188:c:\program files\daisytoolchain\arm-none-eabi\include\c++\10.2.1\bits\stl_algo.h ****    *  This is an helper function for search_n overloaded for forward iterators.
 189:c:\program files\daisytoolchain\arm-none-eabi\include\c++\10.2.1\bits\stl_algo.h ****   */
 190:c:\program files\daisytoolchain\arm-none-eabi\include\c++\10.2.1\bits\stl_algo.h ****   template<typename _ForwardIterator, typename _Integer,
 191:c:\program files\daisytoolchain\arm-none-eabi\include\c++\10.2.1\bits\stl_algo.h **** 	   typename _UnaryPredicate>
 192:c:\program files\daisytoolchain\arm-none-eabi\include\c++\10.2.1\bits\stl_algo.h ****     _GLIBCXX20_CONSTEXPR
 193:c:\program files\daisytoolchain\arm-none-eabi\include\c++\10.2.1\bits\stl_algo.h ****     _ForwardIterator
 194:c:\program files\daisytoolchain\arm-none-eabi\include\c++\10.2.1\bits\stl_algo.h ****     __search_n_aux(_ForwardIterator __first, _ForwardIterator __last,
 195:c:\program files\daisytoolchain\arm-none-eabi\include\c++\10.2.1\bits\stl_algo.h **** 		   _Integer __count, _UnaryPredicate __unary_pred,
 196:c:\program files\daisytoolchain\arm-none-eabi\include\c++\10.2.1\bits\stl_algo.h **** 		   std::forward_iterator_tag)
 197:c:\program files\daisytoolchain\arm-none-eabi\include\c++\10.2.1\bits\stl_algo.h ****     {
 198:c:\program files\daisytoolchain\arm-none-eabi\include\c++\10.2.1\bits\stl_algo.h ****       __first = std::__find_if(__first, __last, __unary_pred);
 199:c:\program files\daisytoolchain\arm-none-eabi\include\c++\10.2.1\bits\stl_algo.h ****       while (__first != __last)
 200:c:\program files\daisytoolchain\arm-none-eabi\include\c++\10.2.1\bits\stl_algo.h **** 	{
 201:c:\program files\daisytoolchain\arm-none-eabi\include\c++\10.2.1\bits\stl_algo.h **** 	  typename iterator_traits<_ForwardIterator>::difference_type
 202:c:\program files\daisytoolchain\arm-none-eabi\include\c++\10.2.1\bits\stl_algo.h **** 	    __n = __count;
 203:c:\program files\daisytoolchain\arm-none-eabi\include\c++\10.2.1\bits\stl_algo.h **** 	  _ForwardIterator __i = __first;
 204:c:\program files\daisytoolchain\arm-none-eabi\include\c++\10.2.1\bits\stl_algo.h **** 	  ++__i;
 205:c:\program files\daisytoolchain\arm-none-eabi\include\c++\10.2.1\bits\stl_algo.h **** 	  while (__i != __last && __n != 1 && __unary_pred(__i))
 206:c:\program files\daisytoolchain\arm-none-eabi\include\c++\10.2.1\bits\stl_algo.h **** 	    {
 207:c:\program files\daisytoolchain\arm-none-eabi\include\c++\10.2.1\bits\stl_algo.h **** 	      ++__i;
 208:c:\program files\daisytoolchain\arm-none-eabi\include\c++\10.2.1\bits\stl_algo.h **** 	      --__n;
 209:c:\program files\daisytoolchain\arm-none-eabi\include\c++\10.2.1\bits\stl_algo.h **** 	    }
 210:c:\program files\daisytoolchain\arm-none-eabi\include\c++\10.2.1\bits\stl_algo.h **** 	  if (__n == 1)
 211:c:\program files\daisytoolchain\arm-none-eabi\include\c++\10.2.1\bits\stl_algo.h **** 	    return __first;
 212:c:\program files\daisytoolchain\arm-none-eabi\include\c++\10.2.1\bits\stl_algo.h **** 	  if (__i == __last)
 213:c:\program files\daisytoolchain\arm-none-eabi\include\c++\10.2.1\bits\stl_algo.h **** 	    return __last;
 214:c:\program files\daisytoolchain\arm-none-eabi\include\c++\10.2.1\bits\stl_algo.h **** 	  __first = std::__find_if(++__i, __last, __unary_pred);
 215:c:\program files\daisytoolchain\arm-none-eabi\include\c++\10.2.1\bits\stl_algo.h **** 	}
 216:c:\program files\daisytoolchain\arm-none-eabi\include\c++\10.2.1\bits\stl_algo.h ****       return __last;
 217:c:\program files\daisytoolchain\arm-none-eabi\include\c++\10.2.1\bits\stl_algo.h ****     }
 218:c:\program files\daisytoolchain\arm-none-eabi\include\c++\10.2.1\bits\stl_algo.h **** 
 219:c:\program files\daisytoolchain\arm-none-eabi\include\c++\10.2.1\bits\stl_algo.h ****   /**
 220:c:\program files\daisytoolchain\arm-none-eabi\include\c++\10.2.1\bits\stl_algo.h ****    *  This is an helper function for search_n overloaded for random access
 221:c:\program files\daisytoolchain\arm-none-eabi\include\c++\10.2.1\bits\stl_algo.h ****    *  iterators.
ARM GAS  C:\Users\digit\AppData\Local\Temp\ccMK4Fcw.s 			page 42


 222:c:\program files\daisytoolchain\arm-none-eabi\include\c++\10.2.1\bits\stl_algo.h ****   */
 223:c:\program files\daisytoolchain\arm-none-eabi\include\c++\10.2.1\bits\stl_algo.h ****   template<typename _RandomAccessIter, typename _Integer,
 224:c:\program files\daisytoolchain\arm-none-eabi\include\c++\10.2.1\bits\stl_algo.h **** 	   typename _UnaryPredicate>
 225:c:\program files\daisytoolchain\arm-none-eabi\include\c++\10.2.1\bits\stl_algo.h ****     _GLIBCXX20_CONSTEXPR
 226:c:\program files\daisytoolchain\arm-none-eabi\include\c++\10.2.1\bits\stl_algo.h ****     _RandomAccessIter
 227:c:\program files\daisytoolchain\arm-none-eabi\include\c++\10.2.1\bits\stl_algo.h ****     __search_n_aux(_RandomAccessIter __first, _RandomAccessIter __last,
 228:c:\program files\daisytoolchain\arm-none-eabi\include\c++\10.2.1\bits\stl_algo.h **** 		   _Integer __count, _UnaryPredicate __unary_pred,
 229:c:\program files\daisytoolchain\arm-none-eabi\include\c++\10.2.1\bits\stl_algo.h **** 		   std::random_access_iterator_tag)
 230:c:\program files\daisytoolchain\arm-none-eabi\include\c++\10.2.1\bits\stl_algo.h ****     {
 231:c:\program files\daisytoolchain\arm-none-eabi\include\c++\10.2.1\bits\stl_algo.h ****       typedef typename std::iterator_traits<_RandomAccessIter>::difference_type
 232:c:\program files\daisytoolchain\arm-none-eabi\include\c++\10.2.1\bits\stl_algo.h **** 	_DistanceType;
 233:c:\program files\daisytoolchain\arm-none-eabi\include\c++\10.2.1\bits\stl_algo.h **** 
 234:c:\program files\daisytoolchain\arm-none-eabi\include\c++\10.2.1\bits\stl_algo.h ****       _DistanceType __tailSize = __last - __first;
 235:c:\program files\daisytoolchain\arm-none-eabi\include\c++\10.2.1\bits\stl_algo.h ****       _DistanceType __remainder = __count;
 236:c:\program files\daisytoolchain\arm-none-eabi\include\c++\10.2.1\bits\stl_algo.h **** 
 237:c:\program files\daisytoolchain\arm-none-eabi\include\c++\10.2.1\bits\stl_algo.h ****       while (__remainder <= __tailSize) // the main loop...
 238:c:\program files\daisytoolchain\arm-none-eabi\include\c++\10.2.1\bits\stl_algo.h **** 	{
 239:c:\program files\daisytoolchain\arm-none-eabi\include\c++\10.2.1\bits\stl_algo.h **** 	  __first += __remainder;
 240:c:\program files\daisytoolchain\arm-none-eabi\include\c++\10.2.1\bits\stl_algo.h **** 	  __tailSize -= __remainder;
 241:c:\program files\daisytoolchain\arm-none-eabi\include\c++\10.2.1\bits\stl_algo.h **** 	  // __first here is always pointing to one past the last element of
 242:c:\program files\daisytoolchain\arm-none-eabi\include\c++\10.2.1\bits\stl_algo.h **** 	  // next possible match.
 243:c:\program files\daisytoolchain\arm-none-eabi\include\c++\10.2.1\bits\stl_algo.h **** 	  _RandomAccessIter __backTrack = __first; 
 244:c:\program files\daisytoolchain\arm-none-eabi\include\c++\10.2.1\bits\stl_algo.h **** 	  while (__unary_pred(--__backTrack))
 245:c:\program files\daisytoolchain\arm-none-eabi\include\c++\10.2.1\bits\stl_algo.h **** 	    {
 246:c:\program files\daisytoolchain\arm-none-eabi\include\c++\10.2.1\bits\stl_algo.h **** 	      if (--__remainder == 0)
 247:c:\program files\daisytoolchain\arm-none-eabi\include\c++\10.2.1\bits\stl_algo.h **** 		return (__first - __count); // Success
 248:c:\program files\daisytoolchain\arm-none-eabi\include\c++\10.2.1\bits\stl_algo.h **** 	    }
 249:c:\program files\daisytoolchain\arm-none-eabi\include\c++\10.2.1\bits\stl_algo.h **** 	  __remainder = __count + 1 - (__first - __backTrack);
 250:c:\program files\daisytoolchain\arm-none-eabi\include\c++\10.2.1\bits\stl_algo.h **** 	}
 251:c:\program files\daisytoolchain\arm-none-eabi\include\c++\10.2.1\bits\stl_algo.h ****       return __last; // Failure
 252:c:\program files\daisytoolchain\arm-none-eabi\include\c++\10.2.1\bits\stl_algo.h ****     }
 253:c:\program files\daisytoolchain\arm-none-eabi\include\c++\10.2.1\bits\stl_algo.h **** 
 254:c:\program files\daisytoolchain\arm-none-eabi\include\c++\10.2.1\bits\stl_algo.h ****   template<typename _ForwardIterator, typename _Integer,
 255:c:\program files\daisytoolchain\arm-none-eabi\include\c++\10.2.1\bits\stl_algo.h **** 	   typename _UnaryPredicate>
 256:c:\program files\daisytoolchain\arm-none-eabi\include\c++\10.2.1\bits\stl_algo.h ****     _GLIBCXX20_CONSTEXPR
 257:c:\program files\daisytoolchain\arm-none-eabi\include\c++\10.2.1\bits\stl_algo.h ****     _ForwardIterator
 258:c:\program files\daisytoolchain\arm-none-eabi\include\c++\10.2.1\bits\stl_algo.h ****     __search_n(_ForwardIterator __first, _ForwardIterator __last,
 259:c:\program files\daisytoolchain\arm-none-eabi\include\c++\10.2.1\bits\stl_algo.h **** 	       _Integer __count,
 260:c:\program files\daisytoolchain\arm-none-eabi\include\c++\10.2.1\bits\stl_algo.h **** 	       _UnaryPredicate __unary_pred)
 261:c:\program files\daisytoolchain\arm-none-eabi\include\c++\10.2.1\bits\stl_algo.h ****     {
 262:c:\program files\daisytoolchain\arm-none-eabi\include\c++\10.2.1\bits\stl_algo.h ****       if (__count <= 0)
 263:c:\program files\daisytoolchain\arm-none-eabi\include\c++\10.2.1\bits\stl_algo.h **** 	return __first;
 264:c:\program files\daisytoolchain\arm-none-eabi\include\c++\10.2.1\bits\stl_algo.h **** 
 265:c:\program files\daisytoolchain\arm-none-eabi\include\c++\10.2.1\bits\stl_algo.h ****       if (__count == 1)
 266:c:\program files\daisytoolchain\arm-none-eabi\include\c++\10.2.1\bits\stl_algo.h **** 	return std::__find_if(__first, __last, __unary_pred);
 267:c:\program files\daisytoolchain\arm-none-eabi\include\c++\10.2.1\bits\stl_algo.h **** 
 268:c:\program files\daisytoolchain\arm-none-eabi\include\c++\10.2.1\bits\stl_algo.h ****       return std::__search_n_aux(__first, __last, __count, __unary_pred,
 269:c:\program files\daisytoolchain\arm-none-eabi\include\c++\10.2.1\bits\stl_algo.h **** 				 std::__iterator_category(__first));
 270:c:\program files\daisytoolchain\arm-none-eabi\include\c++\10.2.1\bits\stl_algo.h ****     }
 271:c:\program files\daisytoolchain\arm-none-eabi\include\c++\10.2.1\bits\stl_algo.h **** 
 272:c:\program files\daisytoolchain\arm-none-eabi\include\c++\10.2.1\bits\stl_algo.h ****   // find_end for forward iterators.
 273:c:\program files\daisytoolchain\arm-none-eabi\include\c++\10.2.1\bits\stl_algo.h ****   template<typename _ForwardIterator1, typename _ForwardIterator2,
 274:c:\program files\daisytoolchain\arm-none-eabi\include\c++\10.2.1\bits\stl_algo.h **** 	   typename _BinaryPredicate>
 275:c:\program files\daisytoolchain\arm-none-eabi\include\c++\10.2.1\bits\stl_algo.h ****     _GLIBCXX20_CONSTEXPR
 276:c:\program files\daisytoolchain\arm-none-eabi\include\c++\10.2.1\bits\stl_algo.h ****     _ForwardIterator1
 277:c:\program files\daisytoolchain\arm-none-eabi\include\c++\10.2.1\bits\stl_algo.h ****     __find_end(_ForwardIterator1 __first1, _ForwardIterator1 __last1,
 278:c:\program files\daisytoolchain\arm-none-eabi\include\c++\10.2.1\bits\stl_algo.h **** 	       _ForwardIterator2 __first2, _ForwardIterator2 __last2,
ARM GAS  C:\Users\digit\AppData\Local\Temp\ccMK4Fcw.s 			page 43


 279:c:\program files\daisytoolchain\arm-none-eabi\include\c++\10.2.1\bits\stl_algo.h **** 	       forward_iterator_tag, forward_iterator_tag,
 280:c:\program files\daisytoolchain\arm-none-eabi\include\c++\10.2.1\bits\stl_algo.h **** 	       _BinaryPredicate __comp)
 281:c:\program files\daisytoolchain\arm-none-eabi\include\c++\10.2.1\bits\stl_algo.h ****     {
 282:c:\program files\daisytoolchain\arm-none-eabi\include\c++\10.2.1\bits\stl_algo.h ****       if (__first2 == __last2)
 283:c:\program files\daisytoolchain\arm-none-eabi\include\c++\10.2.1\bits\stl_algo.h **** 	return __last1;
 284:c:\program files\daisytoolchain\arm-none-eabi\include\c++\10.2.1\bits\stl_algo.h **** 
 285:c:\program files\daisytoolchain\arm-none-eabi\include\c++\10.2.1\bits\stl_algo.h ****       _ForwardIterator1 __result = __last1;
 286:c:\program files\daisytoolchain\arm-none-eabi\include\c++\10.2.1\bits\stl_algo.h ****       while (1)
 287:c:\program files\daisytoolchain\arm-none-eabi\include\c++\10.2.1\bits\stl_algo.h **** 	{
 288:c:\program files\daisytoolchain\arm-none-eabi\include\c++\10.2.1\bits\stl_algo.h **** 	  _ForwardIterator1 __new_result
 289:c:\program files\daisytoolchain\arm-none-eabi\include\c++\10.2.1\bits\stl_algo.h **** 	    = std::__search(__first1, __last1, __first2, __last2, __comp);
 290:c:\program files\daisytoolchain\arm-none-eabi\include\c++\10.2.1\bits\stl_algo.h **** 	  if (__new_result == __last1)
 291:c:\program files\daisytoolchain\arm-none-eabi\include\c++\10.2.1\bits\stl_algo.h **** 	    return __result;
 292:c:\program files\daisytoolchain\arm-none-eabi\include\c++\10.2.1\bits\stl_algo.h **** 	  else
 293:c:\program files\daisytoolchain\arm-none-eabi\include\c++\10.2.1\bits\stl_algo.h **** 	    {
 294:c:\program files\daisytoolchain\arm-none-eabi\include\c++\10.2.1\bits\stl_algo.h **** 	      __result = __new_result;
 295:c:\program files\daisytoolchain\arm-none-eabi\include\c++\10.2.1\bits\stl_algo.h **** 	      __first1 = __new_result;
 296:c:\program files\daisytoolchain\arm-none-eabi\include\c++\10.2.1\bits\stl_algo.h **** 	      ++__first1;
 297:c:\program files\daisytoolchain\arm-none-eabi\include\c++\10.2.1\bits\stl_algo.h **** 	    }
 298:c:\program files\daisytoolchain\arm-none-eabi\include\c++\10.2.1\bits\stl_algo.h **** 	}
 299:c:\program files\daisytoolchain\arm-none-eabi\include\c++\10.2.1\bits\stl_algo.h ****     }
 300:c:\program files\daisytoolchain\arm-none-eabi\include\c++\10.2.1\bits\stl_algo.h **** 
 301:c:\program files\daisytoolchain\arm-none-eabi\include\c++\10.2.1\bits\stl_algo.h ****   // find_end for bidirectional iterators (much faster).
 302:c:\program files\daisytoolchain\arm-none-eabi\include\c++\10.2.1\bits\stl_algo.h ****   template<typename _BidirectionalIterator1, typename _BidirectionalIterator2,
 303:c:\program files\daisytoolchain\arm-none-eabi\include\c++\10.2.1\bits\stl_algo.h **** 	   typename _BinaryPredicate>
 304:c:\program files\daisytoolchain\arm-none-eabi\include\c++\10.2.1\bits\stl_algo.h ****     _GLIBCXX20_CONSTEXPR
 305:c:\program files\daisytoolchain\arm-none-eabi\include\c++\10.2.1\bits\stl_algo.h ****     _BidirectionalIterator1
 306:c:\program files\daisytoolchain\arm-none-eabi\include\c++\10.2.1\bits\stl_algo.h ****     __find_end(_BidirectionalIterator1 __first1,
 307:c:\program files\daisytoolchain\arm-none-eabi\include\c++\10.2.1\bits\stl_algo.h **** 	       _BidirectionalIterator1 __last1,
 308:c:\program files\daisytoolchain\arm-none-eabi\include\c++\10.2.1\bits\stl_algo.h **** 	       _BidirectionalIterator2 __first2,
 309:c:\program files\daisytoolchain\arm-none-eabi\include\c++\10.2.1\bits\stl_algo.h **** 	       _BidirectionalIterator2 __last2,
 310:c:\program files\daisytoolchain\arm-none-eabi\include\c++\10.2.1\bits\stl_algo.h **** 	       bidirectional_iterator_tag, bidirectional_iterator_tag,
 311:c:\program files\daisytoolchain\arm-none-eabi\include\c++\10.2.1\bits\stl_algo.h **** 	       _BinaryPredicate __comp)
 312:c:\program files\daisytoolchain\arm-none-eabi\include\c++\10.2.1\bits\stl_algo.h ****     {
 313:c:\program files\daisytoolchain\arm-none-eabi\include\c++\10.2.1\bits\stl_algo.h ****       // concept requirements
 314:c:\program files\daisytoolchain\arm-none-eabi\include\c++\10.2.1\bits\stl_algo.h ****       __glibcxx_function_requires(_BidirectionalIteratorConcept<
 315:c:\program files\daisytoolchain\arm-none-eabi\include\c++\10.2.1\bits\stl_algo.h **** 				  _BidirectionalIterator1>)
 316:c:\program files\daisytoolchain\arm-none-eabi\include\c++\10.2.1\bits\stl_algo.h ****       __glibcxx_function_requires(_BidirectionalIteratorConcept<
 317:c:\program files\daisytoolchain\arm-none-eabi\include\c++\10.2.1\bits\stl_algo.h **** 				  _BidirectionalIterator2>)
 318:c:\program files\daisytoolchain\arm-none-eabi\include\c++\10.2.1\bits\stl_algo.h **** 
 319:c:\program files\daisytoolchain\arm-none-eabi\include\c++\10.2.1\bits\stl_algo.h ****       typedef reverse_iterator<_BidirectionalIterator1> _RevIterator1;
 320:c:\program files\daisytoolchain\arm-none-eabi\include\c++\10.2.1\bits\stl_algo.h ****       typedef reverse_iterator<_BidirectionalIterator2> _RevIterator2;
 321:c:\program files\daisytoolchain\arm-none-eabi\include\c++\10.2.1\bits\stl_algo.h **** 
 322:c:\program files\daisytoolchain\arm-none-eabi\include\c++\10.2.1\bits\stl_algo.h ****       _RevIterator1 __rlast1(__first1);
 323:c:\program files\daisytoolchain\arm-none-eabi\include\c++\10.2.1\bits\stl_algo.h ****       _RevIterator2 __rlast2(__first2);
 324:c:\program files\daisytoolchain\arm-none-eabi\include\c++\10.2.1\bits\stl_algo.h ****       _RevIterator1 __rresult = std::__search(_RevIterator1(__last1), __rlast1,
 325:c:\program files\daisytoolchain\arm-none-eabi\include\c++\10.2.1\bits\stl_algo.h **** 					      _RevIterator2(__last2), __rlast2,
 326:c:\program files\daisytoolchain\arm-none-eabi\include\c++\10.2.1\bits\stl_algo.h **** 					      __comp);
 327:c:\program files\daisytoolchain\arm-none-eabi\include\c++\10.2.1\bits\stl_algo.h **** 
 328:c:\program files\daisytoolchain\arm-none-eabi\include\c++\10.2.1\bits\stl_algo.h ****       if (__rresult == __rlast1)
 329:c:\program files\daisytoolchain\arm-none-eabi\include\c++\10.2.1\bits\stl_algo.h **** 	return __last1;
 330:c:\program files\daisytoolchain\arm-none-eabi\include\c++\10.2.1\bits\stl_algo.h ****       else
 331:c:\program files\daisytoolchain\arm-none-eabi\include\c++\10.2.1\bits\stl_algo.h **** 	{
 332:c:\program files\daisytoolchain\arm-none-eabi\include\c++\10.2.1\bits\stl_algo.h **** 	  _BidirectionalIterator1 __result = __rresult.base();
 333:c:\program files\daisytoolchain\arm-none-eabi\include\c++\10.2.1\bits\stl_algo.h **** 	  std::advance(__result, -std::distance(__first2, __last2));
 334:c:\program files\daisytoolchain\arm-none-eabi\include\c++\10.2.1\bits\stl_algo.h **** 	  return __result;
 335:c:\program files\daisytoolchain\arm-none-eabi\include\c++\10.2.1\bits\stl_algo.h **** 	}
ARM GAS  C:\Users\digit\AppData\Local\Temp\ccMK4Fcw.s 			page 44


 336:c:\program files\daisytoolchain\arm-none-eabi\include\c++\10.2.1\bits\stl_algo.h ****     }
 337:c:\program files\daisytoolchain\arm-none-eabi\include\c++\10.2.1\bits\stl_algo.h **** 
 338:c:\program files\daisytoolchain\arm-none-eabi\include\c++\10.2.1\bits\stl_algo.h ****   /**
 339:c:\program files\daisytoolchain\arm-none-eabi\include\c++\10.2.1\bits\stl_algo.h ****    *  @brief  Find last matching subsequence in a sequence.
 340:c:\program files\daisytoolchain\arm-none-eabi\include\c++\10.2.1\bits\stl_algo.h ****    *  @ingroup non_mutating_algorithms
 341:c:\program files\daisytoolchain\arm-none-eabi\include\c++\10.2.1\bits\stl_algo.h ****    *  @param  __first1  Start of range to search.
 342:c:\program files\daisytoolchain\arm-none-eabi\include\c++\10.2.1\bits\stl_algo.h ****    *  @param  __last1   End of range to search.
 343:c:\program files\daisytoolchain\arm-none-eabi\include\c++\10.2.1\bits\stl_algo.h ****    *  @param  __first2  Start of sequence to match.
 344:c:\program files\daisytoolchain\arm-none-eabi\include\c++\10.2.1\bits\stl_algo.h ****    *  @param  __last2   End of sequence to match.
 345:c:\program files\daisytoolchain\arm-none-eabi\include\c++\10.2.1\bits\stl_algo.h ****    *  @return   The last iterator @c i in the range
 346:c:\program files\daisytoolchain\arm-none-eabi\include\c++\10.2.1\bits\stl_algo.h ****    *  @p [__first1,__last1-(__last2-__first2)) such that @c *(i+N) ==
 347:c:\program files\daisytoolchain\arm-none-eabi\include\c++\10.2.1\bits\stl_algo.h ****    *  @p *(__first2+N) for each @c N in the range @p
 348:c:\program files\daisytoolchain\arm-none-eabi\include\c++\10.2.1\bits\stl_algo.h ****    *  [0,__last2-__first2), or @p __last1 if no such iterator exists.
 349:c:\program files\daisytoolchain\arm-none-eabi\include\c++\10.2.1\bits\stl_algo.h ****    *
 350:c:\program files\daisytoolchain\arm-none-eabi\include\c++\10.2.1\bits\stl_algo.h ****    *  Searches the range @p [__first1,__last1) for a sub-sequence that
 351:c:\program files\daisytoolchain\arm-none-eabi\include\c++\10.2.1\bits\stl_algo.h ****    *  compares equal value-by-value with the sequence given by @p
 352:c:\program files\daisytoolchain\arm-none-eabi\include\c++\10.2.1\bits\stl_algo.h ****    *  [__first2,__last2) and returns an iterator to the __first
 353:c:\program files\daisytoolchain\arm-none-eabi\include\c++\10.2.1\bits\stl_algo.h ****    *  element of the sub-sequence, or @p __last1 if the sub-sequence
 354:c:\program files\daisytoolchain\arm-none-eabi\include\c++\10.2.1\bits\stl_algo.h ****    *  is not found.  The sub-sequence will be the last such
 355:c:\program files\daisytoolchain\arm-none-eabi\include\c++\10.2.1\bits\stl_algo.h ****    *  subsequence contained in [__first1,__last1).
 356:c:\program files\daisytoolchain\arm-none-eabi\include\c++\10.2.1\bits\stl_algo.h ****    *
 357:c:\program files\daisytoolchain\arm-none-eabi\include\c++\10.2.1\bits\stl_algo.h ****    *  Because the sub-sequence must lie completely within the range @p
 358:c:\program files\daisytoolchain\arm-none-eabi\include\c++\10.2.1\bits\stl_algo.h ****    *  [__first1,__last1) it must start at a position less than @p
 359:c:\program files\daisytoolchain\arm-none-eabi\include\c++\10.2.1\bits\stl_algo.h ****    *  __last1-(__last2-__first2) where @p __last2-__first2 is the
 360:c:\program files\daisytoolchain\arm-none-eabi\include\c++\10.2.1\bits\stl_algo.h ****    *  length of the sub-sequence.  This means that the returned
 361:c:\program files\daisytoolchain\arm-none-eabi\include\c++\10.2.1\bits\stl_algo.h ****    *  iterator @c i will be in the range @p
 362:c:\program files\daisytoolchain\arm-none-eabi\include\c++\10.2.1\bits\stl_algo.h ****    *  [__first1,__last1-(__last2-__first2))
 363:c:\program files\daisytoolchain\arm-none-eabi\include\c++\10.2.1\bits\stl_algo.h ****   */
 364:c:\program files\daisytoolchain\arm-none-eabi\include\c++\10.2.1\bits\stl_algo.h ****   template<typename _ForwardIterator1, typename _ForwardIterator2>
 365:c:\program files\daisytoolchain\arm-none-eabi\include\c++\10.2.1\bits\stl_algo.h ****     _GLIBCXX20_CONSTEXPR
 366:c:\program files\daisytoolchain\arm-none-eabi\include\c++\10.2.1\bits\stl_algo.h ****     inline _ForwardIterator1
 367:c:\program files\daisytoolchain\arm-none-eabi\include\c++\10.2.1\bits\stl_algo.h ****     find_end(_ForwardIterator1 __first1, _ForwardIterator1 __last1,
 368:c:\program files\daisytoolchain\arm-none-eabi\include\c++\10.2.1\bits\stl_algo.h **** 	     _ForwardIterator2 __first2, _ForwardIterator2 __last2)
 369:c:\program files\daisytoolchain\arm-none-eabi\include\c++\10.2.1\bits\stl_algo.h ****     {
 370:c:\program files\daisytoolchain\arm-none-eabi\include\c++\10.2.1\bits\stl_algo.h ****       // concept requirements
 371:c:\program files\daisytoolchain\arm-none-eabi\include\c++\10.2.1\bits\stl_algo.h ****       __glibcxx_function_requires(_ForwardIteratorConcept<_ForwardIterator1>)
 372:c:\program files\daisytoolchain\arm-none-eabi\include\c++\10.2.1\bits\stl_algo.h ****       __glibcxx_function_requires(_ForwardIteratorConcept<_ForwardIterator2>)
 373:c:\program files\daisytoolchain\arm-none-eabi\include\c++\10.2.1\bits\stl_algo.h ****       __glibcxx_function_requires(_EqualOpConcept<
 374:c:\program files\daisytoolchain\arm-none-eabi\include\c++\10.2.1\bits\stl_algo.h **** 	    typename iterator_traits<_ForwardIterator1>::value_type,
 375:c:\program files\daisytoolchain\arm-none-eabi\include\c++\10.2.1\bits\stl_algo.h **** 	    typename iterator_traits<_ForwardIterator2>::value_type>)
 376:c:\program files\daisytoolchain\arm-none-eabi\include\c++\10.2.1\bits\stl_algo.h ****       __glibcxx_requires_valid_range(__first1, __last1);
 377:c:\program files\daisytoolchain\arm-none-eabi\include\c++\10.2.1\bits\stl_algo.h ****       __glibcxx_requires_valid_range(__first2, __last2);
 378:c:\program files\daisytoolchain\arm-none-eabi\include\c++\10.2.1\bits\stl_algo.h **** 
 379:c:\program files\daisytoolchain\arm-none-eabi\include\c++\10.2.1\bits\stl_algo.h ****       return std::__find_end(__first1, __last1, __first2, __last2,
 380:c:\program files\daisytoolchain\arm-none-eabi\include\c++\10.2.1\bits\stl_algo.h **** 			     std::__iterator_category(__first1),
 381:c:\program files\daisytoolchain\arm-none-eabi\include\c++\10.2.1\bits\stl_algo.h **** 			     std::__iterator_category(__first2),
 382:c:\program files\daisytoolchain\arm-none-eabi\include\c++\10.2.1\bits\stl_algo.h **** 			     __gnu_cxx::__ops::__iter_equal_to_iter());
 383:c:\program files\daisytoolchain\arm-none-eabi\include\c++\10.2.1\bits\stl_algo.h ****     }
 384:c:\program files\daisytoolchain\arm-none-eabi\include\c++\10.2.1\bits\stl_algo.h **** 
 385:c:\program files\daisytoolchain\arm-none-eabi\include\c++\10.2.1\bits\stl_algo.h ****   /**
 386:c:\program files\daisytoolchain\arm-none-eabi\include\c++\10.2.1\bits\stl_algo.h ****    *  @brief  Find last matching subsequence in a sequence using a predicate.
 387:c:\program files\daisytoolchain\arm-none-eabi\include\c++\10.2.1\bits\stl_algo.h ****    *  @ingroup non_mutating_algorithms
 388:c:\program files\daisytoolchain\arm-none-eabi\include\c++\10.2.1\bits\stl_algo.h ****    *  @param  __first1  Start of range to search.
 389:c:\program files\daisytoolchain\arm-none-eabi\include\c++\10.2.1\bits\stl_algo.h ****    *  @param  __last1   End of range to search.
 390:c:\program files\daisytoolchain\arm-none-eabi\include\c++\10.2.1\bits\stl_algo.h ****    *  @param  __first2  Start of sequence to match.
 391:c:\program files\daisytoolchain\arm-none-eabi\include\c++\10.2.1\bits\stl_algo.h ****    *  @param  __last2   End of sequence to match.
 392:c:\program files\daisytoolchain\arm-none-eabi\include\c++\10.2.1\bits\stl_algo.h ****    *  @param  __comp    The predicate to use.
ARM GAS  C:\Users\digit\AppData\Local\Temp\ccMK4Fcw.s 			page 45


 393:c:\program files\daisytoolchain\arm-none-eabi\include\c++\10.2.1\bits\stl_algo.h ****    *  @return The last iterator @c i in the range @p
 394:c:\program files\daisytoolchain\arm-none-eabi\include\c++\10.2.1\bits\stl_algo.h ****    *  [__first1,__last1-(__last2-__first2)) such that @c
 395:c:\program files\daisytoolchain\arm-none-eabi\include\c++\10.2.1\bits\stl_algo.h ****    *  predicate(*(i+N), @p (__first2+N)) is true for each @c N in the
 396:c:\program files\daisytoolchain\arm-none-eabi\include\c++\10.2.1\bits\stl_algo.h ****    *  range @p [0,__last2-__first2), or @p __last1 if no such iterator
 397:c:\program files\daisytoolchain\arm-none-eabi\include\c++\10.2.1\bits\stl_algo.h ****    *  exists.
 398:c:\program files\daisytoolchain\arm-none-eabi\include\c++\10.2.1\bits\stl_algo.h ****    *
 399:c:\program files\daisytoolchain\arm-none-eabi\include\c++\10.2.1\bits\stl_algo.h ****    *  Searches the range @p [__first1,__last1) for a sub-sequence that
 400:c:\program files\daisytoolchain\arm-none-eabi\include\c++\10.2.1\bits\stl_algo.h ****    *  compares equal value-by-value with the sequence given by @p
 401:c:\program files\daisytoolchain\arm-none-eabi\include\c++\10.2.1\bits\stl_algo.h ****    *  [__first2,__last2) using comp as a predicate and returns an
 402:c:\program files\daisytoolchain\arm-none-eabi\include\c++\10.2.1\bits\stl_algo.h ****    *  iterator to the first element of the sub-sequence, or @p __last1
 403:c:\program files\daisytoolchain\arm-none-eabi\include\c++\10.2.1\bits\stl_algo.h ****    *  if the sub-sequence is not found.  The sub-sequence will be the
 404:c:\program files\daisytoolchain\arm-none-eabi\include\c++\10.2.1\bits\stl_algo.h ****    *  last such subsequence contained in [__first,__last1).
 405:c:\program files\daisytoolchain\arm-none-eabi\include\c++\10.2.1\bits\stl_algo.h ****    *
 406:c:\program files\daisytoolchain\arm-none-eabi\include\c++\10.2.1\bits\stl_algo.h ****    *  Because the sub-sequence must lie completely within the range @p
 407:c:\program files\daisytoolchain\arm-none-eabi\include\c++\10.2.1\bits\stl_algo.h ****    *  [__first1,__last1) it must start at a position less than @p
 408:c:\program files\daisytoolchain\arm-none-eabi\include\c++\10.2.1\bits\stl_algo.h ****    *  __last1-(__last2-__first2) where @p __last2-__first2 is the
 409:c:\program files\daisytoolchain\arm-none-eabi\include\c++\10.2.1\bits\stl_algo.h ****    *  length of the sub-sequence.  This means that the returned
 410:c:\program files\daisytoolchain\arm-none-eabi\include\c++\10.2.1\bits\stl_algo.h ****    *  iterator @c i will be in the range @p
 411:c:\program files\daisytoolchain\arm-none-eabi\include\c++\10.2.1\bits\stl_algo.h ****    *  [__first1,__last1-(__last2-__first2))
 412:c:\program files\daisytoolchain\arm-none-eabi\include\c++\10.2.1\bits\stl_algo.h ****   */
 413:c:\program files\daisytoolchain\arm-none-eabi\include\c++\10.2.1\bits\stl_algo.h ****   template<typename _ForwardIterator1, typename _ForwardIterator2,
 414:c:\program files\daisytoolchain\arm-none-eabi\include\c++\10.2.1\bits\stl_algo.h **** 	   typename _BinaryPredicate>
 415:c:\program files\daisytoolchain\arm-none-eabi\include\c++\10.2.1\bits\stl_algo.h ****     _GLIBCXX20_CONSTEXPR
 416:c:\program files\daisytoolchain\arm-none-eabi\include\c++\10.2.1\bits\stl_algo.h ****     inline _ForwardIterator1
 417:c:\program files\daisytoolchain\arm-none-eabi\include\c++\10.2.1\bits\stl_algo.h ****     find_end(_ForwardIterator1 __first1, _ForwardIterator1 __last1,
 418:c:\program files\daisytoolchain\arm-none-eabi\include\c++\10.2.1\bits\stl_algo.h **** 	     _ForwardIterator2 __first2, _ForwardIterator2 __last2,
 419:c:\program files\daisytoolchain\arm-none-eabi\include\c++\10.2.1\bits\stl_algo.h **** 	     _BinaryPredicate __comp)
 420:c:\program files\daisytoolchain\arm-none-eabi\include\c++\10.2.1\bits\stl_algo.h ****     {
 421:c:\program files\daisytoolchain\arm-none-eabi\include\c++\10.2.1\bits\stl_algo.h ****       // concept requirements
 422:c:\program files\daisytoolchain\arm-none-eabi\include\c++\10.2.1\bits\stl_algo.h ****       __glibcxx_function_requires(_ForwardIteratorConcept<_ForwardIterator1>)
 423:c:\program files\daisytoolchain\arm-none-eabi\include\c++\10.2.1\bits\stl_algo.h ****       __glibcxx_function_requires(_ForwardIteratorConcept<_ForwardIterator2>)
 424:c:\program files\daisytoolchain\arm-none-eabi\include\c++\10.2.1\bits\stl_algo.h ****       __glibcxx_function_requires(_BinaryPredicateConcept<_BinaryPredicate,
 425:c:\program files\daisytoolchain\arm-none-eabi\include\c++\10.2.1\bits\stl_algo.h **** 	    typename iterator_traits<_ForwardIterator1>::value_type,
 426:c:\program files\daisytoolchain\arm-none-eabi\include\c++\10.2.1\bits\stl_algo.h **** 	    typename iterator_traits<_ForwardIterator2>::value_type>)
 427:c:\program files\daisytoolchain\arm-none-eabi\include\c++\10.2.1\bits\stl_algo.h ****       __glibcxx_requires_valid_range(__first1, __last1);
 428:c:\program files\daisytoolchain\arm-none-eabi\include\c++\10.2.1\bits\stl_algo.h ****       __glibcxx_requires_valid_range(__first2, __last2);
 429:c:\program files\daisytoolchain\arm-none-eabi\include\c++\10.2.1\bits\stl_algo.h **** 
 430:c:\program files\daisytoolchain\arm-none-eabi\include\c++\10.2.1\bits\stl_algo.h ****       return std::__find_end(__first1, __last1, __first2, __last2,
 431:c:\program files\daisytoolchain\arm-none-eabi\include\c++\10.2.1\bits\stl_algo.h **** 			     std::__iterator_category(__first1),
 432:c:\program files\daisytoolchain\arm-none-eabi\include\c++\10.2.1\bits\stl_algo.h **** 			     std::__iterator_category(__first2),
 433:c:\program files\daisytoolchain\arm-none-eabi\include\c++\10.2.1\bits\stl_algo.h **** 			     __gnu_cxx::__ops::__iter_comp_iter(__comp));
 434:c:\program files\daisytoolchain\arm-none-eabi\include\c++\10.2.1\bits\stl_algo.h ****     }
 435:c:\program files\daisytoolchain\arm-none-eabi\include\c++\10.2.1\bits\stl_algo.h **** 
 436:c:\program files\daisytoolchain\arm-none-eabi\include\c++\10.2.1\bits\stl_algo.h **** #if __cplusplus >= 201103L
 437:c:\program files\daisytoolchain\arm-none-eabi\include\c++\10.2.1\bits\stl_algo.h ****   /**
 438:c:\program files\daisytoolchain\arm-none-eabi\include\c++\10.2.1\bits\stl_algo.h ****    *  @brief  Checks that a predicate is true for all the elements
 439:c:\program files\daisytoolchain\arm-none-eabi\include\c++\10.2.1\bits\stl_algo.h ****    *          of a sequence.
 440:c:\program files\daisytoolchain\arm-none-eabi\include\c++\10.2.1\bits\stl_algo.h ****    *  @ingroup non_mutating_algorithms
 441:c:\program files\daisytoolchain\arm-none-eabi\include\c++\10.2.1\bits\stl_algo.h ****    *  @param  __first   An input iterator.
 442:c:\program files\daisytoolchain\arm-none-eabi\include\c++\10.2.1\bits\stl_algo.h ****    *  @param  __last    An input iterator.
 443:c:\program files\daisytoolchain\arm-none-eabi\include\c++\10.2.1\bits\stl_algo.h ****    *  @param  __pred    A predicate.
 444:c:\program files\daisytoolchain\arm-none-eabi\include\c++\10.2.1\bits\stl_algo.h ****    *  @return  True if the check is true, false otherwise.
 445:c:\program files\daisytoolchain\arm-none-eabi\include\c++\10.2.1\bits\stl_algo.h ****    *
 446:c:\program files\daisytoolchain\arm-none-eabi\include\c++\10.2.1\bits\stl_algo.h ****    *  Returns true if @p __pred is true for each element in the range
 447:c:\program files\daisytoolchain\arm-none-eabi\include\c++\10.2.1\bits\stl_algo.h ****    *  @p [__first,__last), and false otherwise.
 448:c:\program files\daisytoolchain\arm-none-eabi\include\c++\10.2.1\bits\stl_algo.h ****   */
 449:c:\program files\daisytoolchain\arm-none-eabi\include\c++\10.2.1\bits\stl_algo.h ****   template<typename _InputIterator, typename _Predicate>
ARM GAS  C:\Users\digit\AppData\Local\Temp\ccMK4Fcw.s 			page 46


 450:c:\program files\daisytoolchain\arm-none-eabi\include\c++\10.2.1\bits\stl_algo.h ****     _GLIBCXX20_CONSTEXPR
 451:c:\program files\daisytoolchain\arm-none-eabi\include\c++\10.2.1\bits\stl_algo.h ****     inline bool
 452:c:\program files\daisytoolchain\arm-none-eabi\include\c++\10.2.1\bits\stl_algo.h ****     all_of(_InputIterator __first, _InputIterator __last, _Predicate __pred)
 453:c:\program files\daisytoolchain\arm-none-eabi\include\c++\10.2.1\bits\stl_algo.h ****     { return __last == std::find_if_not(__first, __last, __pred); }
 454:c:\program files\daisytoolchain\arm-none-eabi\include\c++\10.2.1\bits\stl_algo.h **** 
 455:c:\program files\daisytoolchain\arm-none-eabi\include\c++\10.2.1\bits\stl_algo.h ****   /**
 456:c:\program files\daisytoolchain\arm-none-eabi\include\c++\10.2.1\bits\stl_algo.h ****    *  @brief  Checks that a predicate is false for all the elements
 457:c:\program files\daisytoolchain\arm-none-eabi\include\c++\10.2.1\bits\stl_algo.h ****    *          of a sequence.
 458:c:\program files\daisytoolchain\arm-none-eabi\include\c++\10.2.1\bits\stl_algo.h ****    *  @ingroup non_mutating_algorithms
 459:c:\program files\daisytoolchain\arm-none-eabi\include\c++\10.2.1\bits\stl_algo.h ****    *  @param  __first   An input iterator.
 460:c:\program files\daisytoolchain\arm-none-eabi\include\c++\10.2.1\bits\stl_algo.h ****    *  @param  __last    An input iterator.
 461:c:\program files\daisytoolchain\arm-none-eabi\include\c++\10.2.1\bits\stl_algo.h ****    *  @param  __pred    A predicate.
 462:c:\program files\daisytoolchain\arm-none-eabi\include\c++\10.2.1\bits\stl_algo.h ****    *  @return  True if the check is true, false otherwise.
 463:c:\program files\daisytoolchain\arm-none-eabi\include\c++\10.2.1\bits\stl_algo.h ****    *
 464:c:\program files\daisytoolchain\arm-none-eabi\include\c++\10.2.1\bits\stl_algo.h ****    *  Returns true if @p __pred is false for each element in the range
 465:c:\program files\daisytoolchain\arm-none-eabi\include\c++\10.2.1\bits\stl_algo.h ****    *  @p [__first,__last), and false otherwise.
 466:c:\program files\daisytoolchain\arm-none-eabi\include\c++\10.2.1\bits\stl_algo.h ****   */
 467:c:\program files\daisytoolchain\arm-none-eabi\include\c++\10.2.1\bits\stl_algo.h ****   template<typename _InputIterator, typename _Predicate>
 468:c:\program files\daisytoolchain\arm-none-eabi\include\c++\10.2.1\bits\stl_algo.h ****     _GLIBCXX20_CONSTEXPR
 469:c:\program files\daisytoolchain\arm-none-eabi\include\c++\10.2.1\bits\stl_algo.h ****     inline bool
 470:c:\program files\daisytoolchain\arm-none-eabi\include\c++\10.2.1\bits\stl_algo.h ****     none_of(_InputIterator __first, _InputIterator __last, _Predicate __pred)
 471:c:\program files\daisytoolchain\arm-none-eabi\include\c++\10.2.1\bits\stl_algo.h ****     { return __last == _GLIBCXX_STD_A::find_if(__first, __last, __pred); }
 472:c:\program files\daisytoolchain\arm-none-eabi\include\c++\10.2.1\bits\stl_algo.h **** 
 473:c:\program files\daisytoolchain\arm-none-eabi\include\c++\10.2.1\bits\stl_algo.h ****   /**
 474:c:\program files\daisytoolchain\arm-none-eabi\include\c++\10.2.1\bits\stl_algo.h ****    *  @brief  Checks that a predicate is true for at least one element
 475:c:\program files\daisytoolchain\arm-none-eabi\include\c++\10.2.1\bits\stl_algo.h ****    *          of a sequence.
 476:c:\program files\daisytoolchain\arm-none-eabi\include\c++\10.2.1\bits\stl_algo.h ****    *  @ingroup non_mutating_algorithms
 477:c:\program files\daisytoolchain\arm-none-eabi\include\c++\10.2.1\bits\stl_algo.h ****    *  @param  __first   An input iterator.
 478:c:\program files\daisytoolchain\arm-none-eabi\include\c++\10.2.1\bits\stl_algo.h ****    *  @param  __last    An input iterator.
 479:c:\program files\daisytoolchain\arm-none-eabi\include\c++\10.2.1\bits\stl_algo.h ****    *  @param  __pred    A predicate.
 480:c:\program files\daisytoolchain\arm-none-eabi\include\c++\10.2.1\bits\stl_algo.h ****    *  @return  True if the check is true, false otherwise.
 481:c:\program files\daisytoolchain\arm-none-eabi\include\c++\10.2.1\bits\stl_algo.h ****    *
 482:c:\program files\daisytoolchain\arm-none-eabi\include\c++\10.2.1\bits\stl_algo.h ****    *  Returns true if an element exists in the range @p
 483:c:\program files\daisytoolchain\arm-none-eabi\include\c++\10.2.1\bits\stl_algo.h ****    *  [__first,__last) such that @p __pred is true, and false
 484:c:\program files\daisytoolchain\arm-none-eabi\include\c++\10.2.1\bits\stl_algo.h ****    *  otherwise.
 485:c:\program files\daisytoolchain\arm-none-eabi\include\c++\10.2.1\bits\stl_algo.h ****   */
 486:c:\program files\daisytoolchain\arm-none-eabi\include\c++\10.2.1\bits\stl_algo.h ****   template<typename _InputIterator, typename _Predicate>
 487:c:\program files\daisytoolchain\arm-none-eabi\include\c++\10.2.1\bits\stl_algo.h ****     _GLIBCXX20_CONSTEXPR
 488:c:\program files\daisytoolchain\arm-none-eabi\include\c++\10.2.1\bits\stl_algo.h ****     inline bool
 489:c:\program files\daisytoolchain\arm-none-eabi\include\c++\10.2.1\bits\stl_algo.h ****     any_of(_InputIterator __first, _InputIterator __last, _Predicate __pred)
 490:c:\program files\daisytoolchain\arm-none-eabi\include\c++\10.2.1\bits\stl_algo.h ****     { return !std::none_of(__first, __last, __pred); }
 491:c:\program files\daisytoolchain\arm-none-eabi\include\c++\10.2.1\bits\stl_algo.h **** 
 492:c:\program files\daisytoolchain\arm-none-eabi\include\c++\10.2.1\bits\stl_algo.h ****   /**
 493:c:\program files\daisytoolchain\arm-none-eabi\include\c++\10.2.1\bits\stl_algo.h ****    *  @brief  Find the first element in a sequence for which a
 494:c:\program files\daisytoolchain\arm-none-eabi\include\c++\10.2.1\bits\stl_algo.h ****    *          predicate is false.
 495:c:\program files\daisytoolchain\arm-none-eabi\include\c++\10.2.1\bits\stl_algo.h ****    *  @ingroup non_mutating_algorithms
 496:c:\program files\daisytoolchain\arm-none-eabi\include\c++\10.2.1\bits\stl_algo.h ****    *  @param  __first  An input iterator.
 497:c:\program files\daisytoolchain\arm-none-eabi\include\c++\10.2.1\bits\stl_algo.h ****    *  @param  __last   An input iterator.
 498:c:\program files\daisytoolchain\arm-none-eabi\include\c++\10.2.1\bits\stl_algo.h ****    *  @param  __pred   A predicate.
 499:c:\program files\daisytoolchain\arm-none-eabi\include\c++\10.2.1\bits\stl_algo.h ****    *  @return   The first iterator @c i in the range @p [__first,__last)
 500:c:\program files\daisytoolchain\arm-none-eabi\include\c++\10.2.1\bits\stl_algo.h ****    *  such that @p __pred(*i) is false, or @p __last if no such iterator exists.
 501:c:\program files\daisytoolchain\arm-none-eabi\include\c++\10.2.1\bits\stl_algo.h ****   */
 502:c:\program files\daisytoolchain\arm-none-eabi\include\c++\10.2.1\bits\stl_algo.h ****   template<typename _InputIterator, typename _Predicate>
 503:c:\program files\daisytoolchain\arm-none-eabi\include\c++\10.2.1\bits\stl_algo.h ****     _GLIBCXX20_CONSTEXPR
 504:c:\program files\daisytoolchain\arm-none-eabi\include\c++\10.2.1\bits\stl_algo.h ****     inline _InputIterator
 505:c:\program files\daisytoolchain\arm-none-eabi\include\c++\10.2.1\bits\stl_algo.h ****     find_if_not(_InputIterator __first, _InputIterator __last,
 506:c:\program files\daisytoolchain\arm-none-eabi\include\c++\10.2.1\bits\stl_algo.h **** 		_Predicate __pred)
ARM GAS  C:\Users\digit\AppData\Local\Temp\ccMK4Fcw.s 			page 47


 507:c:\program files\daisytoolchain\arm-none-eabi\include\c++\10.2.1\bits\stl_algo.h ****     {
 508:c:\program files\daisytoolchain\arm-none-eabi\include\c++\10.2.1\bits\stl_algo.h ****       // concept requirements
 509:c:\program files\daisytoolchain\arm-none-eabi\include\c++\10.2.1\bits\stl_algo.h ****       __glibcxx_function_requires(_InputIteratorConcept<_InputIterator>)
 510:c:\program files\daisytoolchain\arm-none-eabi\include\c++\10.2.1\bits\stl_algo.h ****       __glibcxx_function_requires(_UnaryPredicateConcept<_Predicate,
 511:c:\program files\daisytoolchain\arm-none-eabi\include\c++\10.2.1\bits\stl_algo.h **** 	      typename iterator_traits<_InputIterator>::value_type>)
 512:c:\program files\daisytoolchain\arm-none-eabi\include\c++\10.2.1\bits\stl_algo.h ****       __glibcxx_requires_valid_range(__first, __last);
 513:c:\program files\daisytoolchain\arm-none-eabi\include\c++\10.2.1\bits\stl_algo.h ****       return std::__find_if_not(__first, __last,
 514:c:\program files\daisytoolchain\arm-none-eabi\include\c++\10.2.1\bits\stl_algo.h **** 				__gnu_cxx::__ops::__pred_iter(__pred));
 515:c:\program files\daisytoolchain\arm-none-eabi\include\c++\10.2.1\bits\stl_algo.h ****     }
 516:c:\program files\daisytoolchain\arm-none-eabi\include\c++\10.2.1\bits\stl_algo.h **** 
 517:c:\program files\daisytoolchain\arm-none-eabi\include\c++\10.2.1\bits\stl_algo.h ****   /**
 518:c:\program files\daisytoolchain\arm-none-eabi\include\c++\10.2.1\bits\stl_algo.h ****    *  @brief  Checks whether the sequence is partitioned.
 519:c:\program files\daisytoolchain\arm-none-eabi\include\c++\10.2.1\bits\stl_algo.h ****    *  @ingroup mutating_algorithms
 520:c:\program files\daisytoolchain\arm-none-eabi\include\c++\10.2.1\bits\stl_algo.h ****    *  @param  __first  An input iterator.
 521:c:\program files\daisytoolchain\arm-none-eabi\include\c++\10.2.1\bits\stl_algo.h ****    *  @param  __last   An input iterator.
 522:c:\program files\daisytoolchain\arm-none-eabi\include\c++\10.2.1\bits\stl_algo.h ****    *  @param  __pred   A predicate.
 523:c:\program files\daisytoolchain\arm-none-eabi\include\c++\10.2.1\bits\stl_algo.h ****    *  @return  True if the range @p [__first,__last) is partioned by @p __pred,
 524:c:\program files\daisytoolchain\arm-none-eabi\include\c++\10.2.1\bits\stl_algo.h ****    *  i.e. if all elements that satisfy @p __pred appear before those that
 525:c:\program files\daisytoolchain\arm-none-eabi\include\c++\10.2.1\bits\stl_algo.h ****    *  do not.
 526:c:\program files\daisytoolchain\arm-none-eabi\include\c++\10.2.1\bits\stl_algo.h ****   */
 527:c:\program files\daisytoolchain\arm-none-eabi\include\c++\10.2.1\bits\stl_algo.h ****   template<typename _InputIterator, typename _Predicate>
 528:c:\program files\daisytoolchain\arm-none-eabi\include\c++\10.2.1\bits\stl_algo.h ****     _GLIBCXX20_CONSTEXPR
 529:c:\program files\daisytoolchain\arm-none-eabi\include\c++\10.2.1\bits\stl_algo.h ****     inline bool
 530:c:\program files\daisytoolchain\arm-none-eabi\include\c++\10.2.1\bits\stl_algo.h ****     is_partitioned(_InputIterator __first, _InputIterator __last,
 531:c:\program files\daisytoolchain\arm-none-eabi\include\c++\10.2.1\bits\stl_algo.h **** 		   _Predicate __pred)
 532:c:\program files\daisytoolchain\arm-none-eabi\include\c++\10.2.1\bits\stl_algo.h ****     {
 533:c:\program files\daisytoolchain\arm-none-eabi\include\c++\10.2.1\bits\stl_algo.h ****       __first = std::find_if_not(__first, __last, __pred);
 534:c:\program files\daisytoolchain\arm-none-eabi\include\c++\10.2.1\bits\stl_algo.h ****       if (__first == __last)
 535:c:\program files\daisytoolchain\arm-none-eabi\include\c++\10.2.1\bits\stl_algo.h **** 	return true;
 536:c:\program files\daisytoolchain\arm-none-eabi\include\c++\10.2.1\bits\stl_algo.h ****       ++__first;
 537:c:\program files\daisytoolchain\arm-none-eabi\include\c++\10.2.1\bits\stl_algo.h ****       return std::none_of(__first, __last, __pred);
 538:c:\program files\daisytoolchain\arm-none-eabi\include\c++\10.2.1\bits\stl_algo.h ****     }
 539:c:\program files\daisytoolchain\arm-none-eabi\include\c++\10.2.1\bits\stl_algo.h **** 
 540:c:\program files\daisytoolchain\arm-none-eabi\include\c++\10.2.1\bits\stl_algo.h ****   /**
 541:c:\program files\daisytoolchain\arm-none-eabi\include\c++\10.2.1\bits\stl_algo.h ****    *  @brief  Find the partition point of a partitioned range.
 542:c:\program files\daisytoolchain\arm-none-eabi\include\c++\10.2.1\bits\stl_algo.h ****    *  @ingroup mutating_algorithms
 543:c:\program files\daisytoolchain\arm-none-eabi\include\c++\10.2.1\bits\stl_algo.h ****    *  @param  __first   An iterator.
 544:c:\program files\daisytoolchain\arm-none-eabi\include\c++\10.2.1\bits\stl_algo.h ****    *  @param  __last    Another iterator.
 545:c:\program files\daisytoolchain\arm-none-eabi\include\c++\10.2.1\bits\stl_algo.h ****    *  @param  __pred    A predicate.
 546:c:\program files\daisytoolchain\arm-none-eabi\include\c++\10.2.1\bits\stl_algo.h ****    *  @return  An iterator @p mid such that @p all_of(__first, mid, __pred)
 547:c:\program files\daisytoolchain\arm-none-eabi\include\c++\10.2.1\bits\stl_algo.h ****    *           and @p none_of(mid, __last, __pred) are both true.
 548:c:\program files\daisytoolchain\arm-none-eabi\include\c++\10.2.1\bits\stl_algo.h ****   */
 549:c:\program files\daisytoolchain\arm-none-eabi\include\c++\10.2.1\bits\stl_algo.h ****   template<typename _ForwardIterator, typename _Predicate>
 550:c:\program files\daisytoolchain\arm-none-eabi\include\c++\10.2.1\bits\stl_algo.h ****     _GLIBCXX20_CONSTEXPR
 551:c:\program files\daisytoolchain\arm-none-eabi\include\c++\10.2.1\bits\stl_algo.h ****     _ForwardIterator
 552:c:\program files\daisytoolchain\arm-none-eabi\include\c++\10.2.1\bits\stl_algo.h ****     partition_point(_ForwardIterator __first, _ForwardIterator __last,
 553:c:\program files\daisytoolchain\arm-none-eabi\include\c++\10.2.1\bits\stl_algo.h **** 		    _Predicate __pred)
 554:c:\program files\daisytoolchain\arm-none-eabi\include\c++\10.2.1\bits\stl_algo.h ****     {
 555:c:\program files\daisytoolchain\arm-none-eabi\include\c++\10.2.1\bits\stl_algo.h ****       // concept requirements
 556:c:\program files\daisytoolchain\arm-none-eabi\include\c++\10.2.1\bits\stl_algo.h ****       __glibcxx_function_requires(_ForwardIteratorConcept<_ForwardIterator>)
 557:c:\program files\daisytoolchain\arm-none-eabi\include\c++\10.2.1\bits\stl_algo.h ****       __glibcxx_function_requires(_UnaryPredicateConcept<_Predicate,
 558:c:\program files\daisytoolchain\arm-none-eabi\include\c++\10.2.1\bits\stl_algo.h **** 	      typename iterator_traits<_ForwardIterator>::value_type>)
 559:c:\program files\daisytoolchain\arm-none-eabi\include\c++\10.2.1\bits\stl_algo.h **** 
 560:c:\program files\daisytoolchain\arm-none-eabi\include\c++\10.2.1\bits\stl_algo.h ****       // A specific debug-mode test will be necessary...
 561:c:\program files\daisytoolchain\arm-none-eabi\include\c++\10.2.1\bits\stl_algo.h ****       __glibcxx_requires_valid_range(__first, __last);
 562:c:\program files\daisytoolchain\arm-none-eabi\include\c++\10.2.1\bits\stl_algo.h **** 
 563:c:\program files\daisytoolchain\arm-none-eabi\include\c++\10.2.1\bits\stl_algo.h ****       typedef typename iterator_traits<_ForwardIterator>::difference_type
ARM GAS  C:\Users\digit\AppData\Local\Temp\ccMK4Fcw.s 			page 48


 564:c:\program files\daisytoolchain\arm-none-eabi\include\c++\10.2.1\bits\stl_algo.h **** 	_DistanceType;
 565:c:\program files\daisytoolchain\arm-none-eabi\include\c++\10.2.1\bits\stl_algo.h **** 
 566:c:\program files\daisytoolchain\arm-none-eabi\include\c++\10.2.1\bits\stl_algo.h ****       _DistanceType __len = std::distance(__first, __last);
 567:c:\program files\daisytoolchain\arm-none-eabi\include\c++\10.2.1\bits\stl_algo.h **** 
 568:c:\program files\daisytoolchain\arm-none-eabi\include\c++\10.2.1\bits\stl_algo.h ****       while (__len > 0)
 569:c:\program files\daisytoolchain\arm-none-eabi\include\c++\10.2.1\bits\stl_algo.h **** 	{
 570:c:\program files\daisytoolchain\arm-none-eabi\include\c++\10.2.1\bits\stl_algo.h **** 	  _DistanceType __half = __len >> 1;
 571:c:\program files\daisytoolchain\arm-none-eabi\include\c++\10.2.1\bits\stl_algo.h **** 	  _ForwardIterator __middle = __first;
 572:c:\program files\daisytoolchain\arm-none-eabi\include\c++\10.2.1\bits\stl_algo.h **** 	  std::advance(__middle, __half);
 573:c:\program files\daisytoolchain\arm-none-eabi\include\c++\10.2.1\bits\stl_algo.h **** 	  if (__pred(*__middle))
 574:c:\program files\daisytoolchain\arm-none-eabi\include\c++\10.2.1\bits\stl_algo.h **** 	    {
 575:c:\program files\daisytoolchain\arm-none-eabi\include\c++\10.2.1\bits\stl_algo.h **** 	      __first = __middle;
 576:c:\program files\daisytoolchain\arm-none-eabi\include\c++\10.2.1\bits\stl_algo.h **** 	      ++__first;
 577:c:\program files\daisytoolchain\arm-none-eabi\include\c++\10.2.1\bits\stl_algo.h **** 	      __len = __len - __half - 1;
 578:c:\program files\daisytoolchain\arm-none-eabi\include\c++\10.2.1\bits\stl_algo.h **** 	    }
 579:c:\program files\daisytoolchain\arm-none-eabi\include\c++\10.2.1\bits\stl_algo.h **** 	  else
 580:c:\program files\daisytoolchain\arm-none-eabi\include\c++\10.2.1\bits\stl_algo.h **** 	    __len = __half;
 581:c:\program files\daisytoolchain\arm-none-eabi\include\c++\10.2.1\bits\stl_algo.h **** 	}
 582:c:\program files\daisytoolchain\arm-none-eabi\include\c++\10.2.1\bits\stl_algo.h ****       return __first;
 583:c:\program files\daisytoolchain\arm-none-eabi\include\c++\10.2.1\bits\stl_algo.h ****     }
 584:c:\program files\daisytoolchain\arm-none-eabi\include\c++\10.2.1\bits\stl_algo.h **** #endif
 585:c:\program files\daisytoolchain\arm-none-eabi\include\c++\10.2.1\bits\stl_algo.h **** 
 586:c:\program files\daisytoolchain\arm-none-eabi\include\c++\10.2.1\bits\stl_algo.h ****   template<typename _InputIterator, typename _OutputIterator,
 587:c:\program files\daisytoolchain\arm-none-eabi\include\c++\10.2.1\bits\stl_algo.h **** 	   typename _Predicate>
 588:c:\program files\daisytoolchain\arm-none-eabi\include\c++\10.2.1\bits\stl_algo.h ****     _GLIBCXX20_CONSTEXPR
 589:c:\program files\daisytoolchain\arm-none-eabi\include\c++\10.2.1\bits\stl_algo.h ****     _OutputIterator
 590:c:\program files\daisytoolchain\arm-none-eabi\include\c++\10.2.1\bits\stl_algo.h ****     __remove_copy_if(_InputIterator __first, _InputIterator __last,
 591:c:\program files\daisytoolchain\arm-none-eabi\include\c++\10.2.1\bits\stl_algo.h **** 		     _OutputIterator __result, _Predicate __pred)
 592:c:\program files\daisytoolchain\arm-none-eabi\include\c++\10.2.1\bits\stl_algo.h ****     {
 593:c:\program files\daisytoolchain\arm-none-eabi\include\c++\10.2.1\bits\stl_algo.h ****       for (; __first != __last; ++__first)
 594:c:\program files\daisytoolchain\arm-none-eabi\include\c++\10.2.1\bits\stl_algo.h **** 	if (!__pred(__first))
 595:c:\program files\daisytoolchain\arm-none-eabi\include\c++\10.2.1\bits\stl_algo.h **** 	  {
 596:c:\program files\daisytoolchain\arm-none-eabi\include\c++\10.2.1\bits\stl_algo.h **** 	    *__result = *__first;
 597:c:\program files\daisytoolchain\arm-none-eabi\include\c++\10.2.1\bits\stl_algo.h **** 	    ++__result;
 598:c:\program files\daisytoolchain\arm-none-eabi\include\c++\10.2.1\bits\stl_algo.h **** 	  }
 599:c:\program files\daisytoolchain\arm-none-eabi\include\c++\10.2.1\bits\stl_algo.h ****       return __result;
 600:c:\program files\daisytoolchain\arm-none-eabi\include\c++\10.2.1\bits\stl_algo.h ****     }
 601:c:\program files\daisytoolchain\arm-none-eabi\include\c++\10.2.1\bits\stl_algo.h **** 
 602:c:\program files\daisytoolchain\arm-none-eabi\include\c++\10.2.1\bits\stl_algo.h ****   /**
 603:c:\program files\daisytoolchain\arm-none-eabi\include\c++\10.2.1\bits\stl_algo.h ****    *  @brief Copy a sequence, removing elements of a given value.
 604:c:\program files\daisytoolchain\arm-none-eabi\include\c++\10.2.1\bits\stl_algo.h ****    *  @ingroup mutating_algorithms
 605:c:\program files\daisytoolchain\arm-none-eabi\include\c++\10.2.1\bits\stl_algo.h ****    *  @param  __first   An input iterator.
 606:c:\program files\daisytoolchain\arm-none-eabi\include\c++\10.2.1\bits\stl_algo.h ****    *  @param  __last    An input iterator.
 607:c:\program files\daisytoolchain\arm-none-eabi\include\c++\10.2.1\bits\stl_algo.h ****    *  @param  __result  An output iterator.
 608:c:\program files\daisytoolchain\arm-none-eabi\include\c++\10.2.1\bits\stl_algo.h ****    *  @param  __value   The value to be removed.
 609:c:\program files\daisytoolchain\arm-none-eabi\include\c++\10.2.1\bits\stl_algo.h ****    *  @return   An iterator designating the end of the resulting sequence.
 610:c:\program files\daisytoolchain\arm-none-eabi\include\c++\10.2.1\bits\stl_algo.h ****    *
 611:c:\program files\daisytoolchain\arm-none-eabi\include\c++\10.2.1\bits\stl_algo.h ****    *  Copies each element in the range @p [__first,__last) not equal
 612:c:\program files\daisytoolchain\arm-none-eabi\include\c++\10.2.1\bits\stl_algo.h ****    *  to @p __value to the range beginning at @p __result.
 613:c:\program files\daisytoolchain\arm-none-eabi\include\c++\10.2.1\bits\stl_algo.h ****    *  remove_copy() is stable, so the relative order of elements that
 614:c:\program files\daisytoolchain\arm-none-eabi\include\c++\10.2.1\bits\stl_algo.h ****    *  are copied is unchanged.
 615:c:\program files\daisytoolchain\arm-none-eabi\include\c++\10.2.1\bits\stl_algo.h ****   */
 616:c:\program files\daisytoolchain\arm-none-eabi\include\c++\10.2.1\bits\stl_algo.h ****   template<typename _InputIterator, typename _OutputIterator, typename _Tp>
 617:c:\program files\daisytoolchain\arm-none-eabi\include\c++\10.2.1\bits\stl_algo.h ****     _GLIBCXX20_CONSTEXPR
 618:c:\program files\daisytoolchain\arm-none-eabi\include\c++\10.2.1\bits\stl_algo.h ****     inline _OutputIterator
 619:c:\program files\daisytoolchain\arm-none-eabi\include\c++\10.2.1\bits\stl_algo.h ****     remove_copy(_InputIterator __first, _InputIterator __last,
 620:c:\program files\daisytoolchain\arm-none-eabi\include\c++\10.2.1\bits\stl_algo.h **** 		_OutputIterator __result, const _Tp& __value)
ARM GAS  C:\Users\digit\AppData\Local\Temp\ccMK4Fcw.s 			page 49


 621:c:\program files\daisytoolchain\arm-none-eabi\include\c++\10.2.1\bits\stl_algo.h ****     {
 622:c:\program files\daisytoolchain\arm-none-eabi\include\c++\10.2.1\bits\stl_algo.h ****       // concept requirements
 623:c:\program files\daisytoolchain\arm-none-eabi\include\c++\10.2.1\bits\stl_algo.h ****       __glibcxx_function_requires(_InputIteratorConcept<_InputIterator>)
 624:c:\program files\daisytoolchain\arm-none-eabi\include\c++\10.2.1\bits\stl_algo.h ****       __glibcxx_function_requires(_OutputIteratorConcept<_OutputIterator,
 625:c:\program files\daisytoolchain\arm-none-eabi\include\c++\10.2.1\bits\stl_algo.h **** 	    typename iterator_traits<_InputIterator>::value_type>)
 626:c:\program files\daisytoolchain\arm-none-eabi\include\c++\10.2.1\bits\stl_algo.h ****       __glibcxx_function_requires(_EqualOpConcept<
 627:c:\program files\daisytoolchain\arm-none-eabi\include\c++\10.2.1\bits\stl_algo.h **** 	    typename iterator_traits<_InputIterator>::value_type, _Tp>)
 628:c:\program files\daisytoolchain\arm-none-eabi\include\c++\10.2.1\bits\stl_algo.h ****       __glibcxx_requires_valid_range(__first, __last);
 629:c:\program files\daisytoolchain\arm-none-eabi\include\c++\10.2.1\bits\stl_algo.h **** 
 630:c:\program files\daisytoolchain\arm-none-eabi\include\c++\10.2.1\bits\stl_algo.h ****       return std::__remove_copy_if(__first, __last, __result,
 631:c:\program files\daisytoolchain\arm-none-eabi\include\c++\10.2.1\bits\stl_algo.h **** 	__gnu_cxx::__ops::__iter_equals_val(__value));
 632:c:\program files\daisytoolchain\arm-none-eabi\include\c++\10.2.1\bits\stl_algo.h ****     }
 633:c:\program files\daisytoolchain\arm-none-eabi\include\c++\10.2.1\bits\stl_algo.h **** 
 634:c:\program files\daisytoolchain\arm-none-eabi\include\c++\10.2.1\bits\stl_algo.h ****   /**
 635:c:\program files\daisytoolchain\arm-none-eabi\include\c++\10.2.1\bits\stl_algo.h ****    *  @brief Copy a sequence, removing elements for which a predicate is true.
 636:c:\program files\daisytoolchain\arm-none-eabi\include\c++\10.2.1\bits\stl_algo.h ****    *  @ingroup mutating_algorithms
 637:c:\program files\daisytoolchain\arm-none-eabi\include\c++\10.2.1\bits\stl_algo.h ****    *  @param  __first   An input iterator.
 638:c:\program files\daisytoolchain\arm-none-eabi\include\c++\10.2.1\bits\stl_algo.h ****    *  @param  __last    An input iterator.
 639:c:\program files\daisytoolchain\arm-none-eabi\include\c++\10.2.1\bits\stl_algo.h ****    *  @param  __result  An output iterator.
 640:c:\program files\daisytoolchain\arm-none-eabi\include\c++\10.2.1\bits\stl_algo.h ****    *  @param  __pred    A predicate.
 641:c:\program files\daisytoolchain\arm-none-eabi\include\c++\10.2.1\bits\stl_algo.h ****    *  @return   An iterator designating the end of the resulting sequence.
 642:c:\program files\daisytoolchain\arm-none-eabi\include\c++\10.2.1\bits\stl_algo.h ****    *
 643:c:\program files\daisytoolchain\arm-none-eabi\include\c++\10.2.1\bits\stl_algo.h ****    *  Copies each element in the range @p [__first,__last) for which
 644:c:\program files\daisytoolchain\arm-none-eabi\include\c++\10.2.1\bits\stl_algo.h ****    *  @p __pred returns false to the range beginning at @p __result.
 645:c:\program files\daisytoolchain\arm-none-eabi\include\c++\10.2.1\bits\stl_algo.h ****    *
 646:c:\program files\daisytoolchain\arm-none-eabi\include\c++\10.2.1\bits\stl_algo.h ****    *  remove_copy_if() is stable, so the relative order of elements that are
 647:c:\program files\daisytoolchain\arm-none-eabi\include\c++\10.2.1\bits\stl_algo.h ****    *  copied is unchanged.
 648:c:\program files\daisytoolchain\arm-none-eabi\include\c++\10.2.1\bits\stl_algo.h ****   */
 649:c:\program files\daisytoolchain\arm-none-eabi\include\c++\10.2.1\bits\stl_algo.h ****   template<typename _InputIterator, typename _OutputIterator,
 650:c:\program files\daisytoolchain\arm-none-eabi\include\c++\10.2.1\bits\stl_algo.h **** 	   typename _Predicate>
 651:c:\program files\daisytoolchain\arm-none-eabi\include\c++\10.2.1\bits\stl_algo.h ****     _GLIBCXX20_CONSTEXPR
 652:c:\program files\daisytoolchain\arm-none-eabi\include\c++\10.2.1\bits\stl_algo.h ****     inline _OutputIterator
 653:c:\program files\daisytoolchain\arm-none-eabi\include\c++\10.2.1\bits\stl_algo.h ****     remove_copy_if(_InputIterator __first, _InputIterator __last,
 654:c:\program files\daisytoolchain\arm-none-eabi\include\c++\10.2.1\bits\stl_algo.h **** 		   _OutputIterator __result, _Predicate __pred)
 655:c:\program files\daisytoolchain\arm-none-eabi\include\c++\10.2.1\bits\stl_algo.h ****     {
 656:c:\program files\daisytoolchain\arm-none-eabi\include\c++\10.2.1\bits\stl_algo.h ****       // concept requirements
 657:c:\program files\daisytoolchain\arm-none-eabi\include\c++\10.2.1\bits\stl_algo.h ****       __glibcxx_function_requires(_InputIteratorConcept<_InputIterator>)
 658:c:\program files\daisytoolchain\arm-none-eabi\include\c++\10.2.1\bits\stl_algo.h ****       __glibcxx_function_requires(_OutputIteratorConcept<_OutputIterator,
 659:c:\program files\daisytoolchain\arm-none-eabi\include\c++\10.2.1\bits\stl_algo.h **** 	    typename iterator_traits<_InputIterator>::value_type>)
 660:c:\program files\daisytoolchain\arm-none-eabi\include\c++\10.2.1\bits\stl_algo.h ****       __glibcxx_function_requires(_UnaryPredicateConcept<_Predicate,
 661:c:\program files\daisytoolchain\arm-none-eabi\include\c++\10.2.1\bits\stl_algo.h **** 	    typename iterator_traits<_InputIterator>::value_type>)
 662:c:\program files\daisytoolchain\arm-none-eabi\include\c++\10.2.1\bits\stl_algo.h ****       __glibcxx_requires_valid_range(__first, __last);
 663:c:\program files\daisytoolchain\arm-none-eabi\include\c++\10.2.1\bits\stl_algo.h **** 
 664:c:\program files\daisytoolchain\arm-none-eabi\include\c++\10.2.1\bits\stl_algo.h ****       return std::__remove_copy_if(__first, __last, __result,
 665:c:\program files\daisytoolchain\arm-none-eabi\include\c++\10.2.1\bits\stl_algo.h **** 				   __gnu_cxx::__ops::__pred_iter(__pred));
 666:c:\program files\daisytoolchain\arm-none-eabi\include\c++\10.2.1\bits\stl_algo.h ****     }
 667:c:\program files\daisytoolchain\arm-none-eabi\include\c++\10.2.1\bits\stl_algo.h **** 
 668:c:\program files\daisytoolchain\arm-none-eabi\include\c++\10.2.1\bits\stl_algo.h **** #if __cplusplus >= 201103L
 669:c:\program files\daisytoolchain\arm-none-eabi\include\c++\10.2.1\bits\stl_algo.h ****   /**
 670:c:\program files\daisytoolchain\arm-none-eabi\include\c++\10.2.1\bits\stl_algo.h ****    *  @brief Copy the elements of a sequence for which a predicate is true.
 671:c:\program files\daisytoolchain\arm-none-eabi\include\c++\10.2.1\bits\stl_algo.h ****    *  @ingroup mutating_algorithms
 672:c:\program files\daisytoolchain\arm-none-eabi\include\c++\10.2.1\bits\stl_algo.h ****    *  @param  __first   An input iterator.
 673:c:\program files\daisytoolchain\arm-none-eabi\include\c++\10.2.1\bits\stl_algo.h ****    *  @param  __last    An input iterator.
 674:c:\program files\daisytoolchain\arm-none-eabi\include\c++\10.2.1\bits\stl_algo.h ****    *  @param  __result  An output iterator.
 675:c:\program files\daisytoolchain\arm-none-eabi\include\c++\10.2.1\bits\stl_algo.h ****    *  @param  __pred    A predicate.
 676:c:\program files\daisytoolchain\arm-none-eabi\include\c++\10.2.1\bits\stl_algo.h ****    *  @return   An iterator designating the end of the resulting sequence.
 677:c:\program files\daisytoolchain\arm-none-eabi\include\c++\10.2.1\bits\stl_algo.h ****    *
ARM GAS  C:\Users\digit\AppData\Local\Temp\ccMK4Fcw.s 			page 50


 678:c:\program files\daisytoolchain\arm-none-eabi\include\c++\10.2.1\bits\stl_algo.h ****    *  Copies each element in the range @p [__first,__last) for which
 679:c:\program files\daisytoolchain\arm-none-eabi\include\c++\10.2.1\bits\stl_algo.h ****    *  @p __pred returns true to the range beginning at @p __result.
 680:c:\program files\daisytoolchain\arm-none-eabi\include\c++\10.2.1\bits\stl_algo.h ****    *
 681:c:\program files\daisytoolchain\arm-none-eabi\include\c++\10.2.1\bits\stl_algo.h ****    *  copy_if() is stable, so the relative order of elements that are
 682:c:\program files\daisytoolchain\arm-none-eabi\include\c++\10.2.1\bits\stl_algo.h ****    *  copied is unchanged.
 683:c:\program files\daisytoolchain\arm-none-eabi\include\c++\10.2.1\bits\stl_algo.h ****   */
 684:c:\program files\daisytoolchain\arm-none-eabi\include\c++\10.2.1\bits\stl_algo.h ****   template<typename _InputIterator, typename _OutputIterator,
 685:c:\program files\daisytoolchain\arm-none-eabi\include\c++\10.2.1\bits\stl_algo.h **** 	   typename _Predicate>
 686:c:\program files\daisytoolchain\arm-none-eabi\include\c++\10.2.1\bits\stl_algo.h ****     _GLIBCXX20_CONSTEXPR
 687:c:\program files\daisytoolchain\arm-none-eabi\include\c++\10.2.1\bits\stl_algo.h ****     _OutputIterator
 688:c:\program files\daisytoolchain\arm-none-eabi\include\c++\10.2.1\bits\stl_algo.h ****     copy_if(_InputIterator __first, _InputIterator __last,
 689:c:\program files\daisytoolchain\arm-none-eabi\include\c++\10.2.1\bits\stl_algo.h **** 	    _OutputIterator __result, _Predicate __pred)
 690:c:\program files\daisytoolchain\arm-none-eabi\include\c++\10.2.1\bits\stl_algo.h ****     {
 691:c:\program files\daisytoolchain\arm-none-eabi\include\c++\10.2.1\bits\stl_algo.h ****       // concept requirements
 692:c:\program files\daisytoolchain\arm-none-eabi\include\c++\10.2.1\bits\stl_algo.h ****       __glibcxx_function_requires(_InputIteratorConcept<_InputIterator>)
 693:c:\program files\daisytoolchain\arm-none-eabi\include\c++\10.2.1\bits\stl_algo.h ****       __glibcxx_function_requires(_OutputIteratorConcept<_OutputIterator,
 694:c:\program files\daisytoolchain\arm-none-eabi\include\c++\10.2.1\bits\stl_algo.h **** 	    typename iterator_traits<_InputIterator>::value_type>)
 695:c:\program files\daisytoolchain\arm-none-eabi\include\c++\10.2.1\bits\stl_algo.h ****       __glibcxx_function_requires(_UnaryPredicateConcept<_Predicate,
 696:c:\program files\daisytoolchain\arm-none-eabi\include\c++\10.2.1\bits\stl_algo.h **** 	    typename iterator_traits<_InputIterator>::value_type>)
 697:c:\program files\daisytoolchain\arm-none-eabi\include\c++\10.2.1\bits\stl_algo.h ****       __glibcxx_requires_valid_range(__first, __last);
 698:c:\program files\daisytoolchain\arm-none-eabi\include\c++\10.2.1\bits\stl_algo.h **** 
 699:c:\program files\daisytoolchain\arm-none-eabi\include\c++\10.2.1\bits\stl_algo.h ****       for (; __first != __last; ++__first)
 700:c:\program files\daisytoolchain\arm-none-eabi\include\c++\10.2.1\bits\stl_algo.h **** 	if (__pred(*__first))
 701:c:\program files\daisytoolchain\arm-none-eabi\include\c++\10.2.1\bits\stl_algo.h **** 	  {
 702:c:\program files\daisytoolchain\arm-none-eabi\include\c++\10.2.1\bits\stl_algo.h **** 	    *__result = *__first;
 703:c:\program files\daisytoolchain\arm-none-eabi\include\c++\10.2.1\bits\stl_algo.h **** 	    ++__result;
 704:c:\program files\daisytoolchain\arm-none-eabi\include\c++\10.2.1\bits\stl_algo.h **** 	  }
 705:c:\program files\daisytoolchain\arm-none-eabi\include\c++\10.2.1\bits\stl_algo.h ****       return __result;
 706:c:\program files\daisytoolchain\arm-none-eabi\include\c++\10.2.1\bits\stl_algo.h ****     }
 707:c:\program files\daisytoolchain\arm-none-eabi\include\c++\10.2.1\bits\stl_algo.h **** 
 708:c:\program files\daisytoolchain\arm-none-eabi\include\c++\10.2.1\bits\stl_algo.h ****   template<typename _InputIterator, typename _Size, typename _OutputIterator>
 709:c:\program files\daisytoolchain\arm-none-eabi\include\c++\10.2.1\bits\stl_algo.h ****     _GLIBCXX20_CONSTEXPR
 710:c:\program files\daisytoolchain\arm-none-eabi\include\c++\10.2.1\bits\stl_algo.h ****     _OutputIterator
 711:c:\program files\daisytoolchain\arm-none-eabi\include\c++\10.2.1\bits\stl_algo.h ****     __copy_n_a(_InputIterator __first, _Size __n, _OutputIterator __result)
 712:c:\program files\daisytoolchain\arm-none-eabi\include\c++\10.2.1\bits\stl_algo.h ****     {
 713:c:\program files\daisytoolchain\arm-none-eabi\include\c++\10.2.1\bits\stl_algo.h ****       if (__n > 0)
 714:c:\program files\daisytoolchain\arm-none-eabi\include\c++\10.2.1\bits\stl_algo.h **** 	{
 715:c:\program files\daisytoolchain\arm-none-eabi\include\c++\10.2.1\bits\stl_algo.h **** 	  while (true)
 716:c:\program files\daisytoolchain\arm-none-eabi\include\c++\10.2.1\bits\stl_algo.h **** 	    {
 717:c:\program files\daisytoolchain\arm-none-eabi\include\c++\10.2.1\bits\stl_algo.h **** 	      *__result = *__first;
 718:c:\program files\daisytoolchain\arm-none-eabi\include\c++\10.2.1\bits\stl_algo.h **** 	      ++__result;
 719:c:\program files\daisytoolchain\arm-none-eabi\include\c++\10.2.1\bits\stl_algo.h **** 	      if (--__n > 0)
 720:c:\program files\daisytoolchain\arm-none-eabi\include\c++\10.2.1\bits\stl_algo.h **** 		++__first;
 721:c:\program files\daisytoolchain\arm-none-eabi\include\c++\10.2.1\bits\stl_algo.h **** 	      else
 722:c:\program files\daisytoolchain\arm-none-eabi\include\c++\10.2.1\bits\stl_algo.h **** 		break;
 723:c:\program files\daisytoolchain\arm-none-eabi\include\c++\10.2.1\bits\stl_algo.h **** 	    }
 724:c:\program files\daisytoolchain\arm-none-eabi\include\c++\10.2.1\bits\stl_algo.h **** 	}
 725:c:\program files\daisytoolchain\arm-none-eabi\include\c++\10.2.1\bits\stl_algo.h ****       return __result;
 726:c:\program files\daisytoolchain\arm-none-eabi\include\c++\10.2.1\bits\stl_algo.h ****     }
 727:c:\program files\daisytoolchain\arm-none-eabi\include\c++\10.2.1\bits\stl_algo.h ****  
 728:c:\program files\daisytoolchain\arm-none-eabi\include\c++\10.2.1\bits\stl_algo.h ****   template<typename _CharT, typename _Size>
 729:c:\program files\daisytoolchain\arm-none-eabi\include\c++\10.2.1\bits\stl_algo.h ****     __enable_if_t<__is_char<_CharT>::__value, _CharT*>
 730:c:\program files\daisytoolchain\arm-none-eabi\include\c++\10.2.1\bits\stl_algo.h ****     __copy_n_a(istreambuf_iterator<_CharT, char_traits<_CharT>>,
 731:c:\program files\daisytoolchain\arm-none-eabi\include\c++\10.2.1\bits\stl_algo.h **** 	       _Size, _CharT*);
 732:c:\program files\daisytoolchain\arm-none-eabi\include\c++\10.2.1\bits\stl_algo.h **** 
 733:c:\program files\daisytoolchain\arm-none-eabi\include\c++\10.2.1\bits\stl_algo.h ****   template<typename _InputIterator, typename _Size, typename _OutputIterator>
 734:c:\program files\daisytoolchain\arm-none-eabi\include\c++\10.2.1\bits\stl_algo.h ****     _GLIBCXX20_CONSTEXPR
ARM GAS  C:\Users\digit\AppData\Local\Temp\ccMK4Fcw.s 			page 51


 735:c:\program files\daisytoolchain\arm-none-eabi\include\c++\10.2.1\bits\stl_algo.h ****     _OutputIterator
 736:c:\program files\daisytoolchain\arm-none-eabi\include\c++\10.2.1\bits\stl_algo.h ****     __copy_n(_InputIterator __first, _Size __n,
 737:c:\program files\daisytoolchain\arm-none-eabi\include\c++\10.2.1\bits\stl_algo.h **** 	     _OutputIterator __result, input_iterator_tag)
 738:c:\program files\daisytoolchain\arm-none-eabi\include\c++\10.2.1\bits\stl_algo.h ****     {
 739:c:\program files\daisytoolchain\arm-none-eabi\include\c++\10.2.1\bits\stl_algo.h ****       return std::__niter_wrap(__result,
 740:c:\program files\daisytoolchain\arm-none-eabi\include\c++\10.2.1\bits\stl_algo.h **** 			       __copy_n_a(__first, __n,
 741:c:\program files\daisytoolchain\arm-none-eabi\include\c++\10.2.1\bits\stl_algo.h **** 					  std::__niter_base(__result)));
 742:c:\program files\daisytoolchain\arm-none-eabi\include\c++\10.2.1\bits\stl_algo.h ****     }
 743:c:\program files\daisytoolchain\arm-none-eabi\include\c++\10.2.1\bits\stl_algo.h **** 
 744:c:\program files\daisytoolchain\arm-none-eabi\include\c++\10.2.1\bits\stl_algo.h ****   template<typename _RandomAccessIterator, typename _Size,
 745:c:\program files\daisytoolchain\arm-none-eabi\include\c++\10.2.1\bits\stl_algo.h **** 	   typename _OutputIterator>
 746:c:\program files\daisytoolchain\arm-none-eabi\include\c++\10.2.1\bits\stl_algo.h ****     _GLIBCXX20_CONSTEXPR
 747:c:\program files\daisytoolchain\arm-none-eabi\include\c++\10.2.1\bits\stl_algo.h ****     inline _OutputIterator
 748:c:\program files\daisytoolchain\arm-none-eabi\include\c++\10.2.1\bits\stl_algo.h ****     __copy_n(_RandomAccessIterator __first, _Size __n,
 749:c:\program files\daisytoolchain\arm-none-eabi\include\c++\10.2.1\bits\stl_algo.h **** 	     _OutputIterator __result, random_access_iterator_tag)
 750:c:\program files\daisytoolchain\arm-none-eabi\include\c++\10.2.1\bits\stl_algo.h ****     { return std::copy(__first, __first + __n, __result); }
 751:c:\program files\daisytoolchain\arm-none-eabi\include\c++\10.2.1\bits\stl_algo.h **** 
 752:c:\program files\daisytoolchain\arm-none-eabi\include\c++\10.2.1\bits\stl_algo.h ****   /**
 753:c:\program files\daisytoolchain\arm-none-eabi\include\c++\10.2.1\bits\stl_algo.h ****    *  @brief Copies the range [first,first+n) into [result,result+n).
 754:c:\program files\daisytoolchain\arm-none-eabi\include\c++\10.2.1\bits\stl_algo.h ****    *  @ingroup mutating_algorithms
 755:c:\program files\daisytoolchain\arm-none-eabi\include\c++\10.2.1\bits\stl_algo.h ****    *  @param  __first  An input iterator.
 756:c:\program files\daisytoolchain\arm-none-eabi\include\c++\10.2.1\bits\stl_algo.h ****    *  @param  __n      The number of elements to copy.
 757:c:\program files\daisytoolchain\arm-none-eabi\include\c++\10.2.1\bits\stl_algo.h ****    *  @param  __result An output iterator.
 758:c:\program files\daisytoolchain\arm-none-eabi\include\c++\10.2.1\bits\stl_algo.h ****    *  @return  result+n.
 759:c:\program files\daisytoolchain\arm-none-eabi\include\c++\10.2.1\bits\stl_algo.h ****    *
 760:c:\program files\daisytoolchain\arm-none-eabi\include\c++\10.2.1\bits\stl_algo.h ****    *  This inline function will boil down to a call to @c memmove whenever
 761:c:\program files\daisytoolchain\arm-none-eabi\include\c++\10.2.1\bits\stl_algo.h ****    *  possible.  Failing that, if random access iterators are passed, then the
 762:c:\program files\daisytoolchain\arm-none-eabi\include\c++\10.2.1\bits\stl_algo.h ****    *  loop count will be known (and therefore a candidate for compiler
 763:c:\program files\daisytoolchain\arm-none-eabi\include\c++\10.2.1\bits\stl_algo.h ****    *  optimizations such as unrolling).
 764:c:\program files\daisytoolchain\arm-none-eabi\include\c++\10.2.1\bits\stl_algo.h ****   */
 765:c:\program files\daisytoolchain\arm-none-eabi\include\c++\10.2.1\bits\stl_algo.h ****   template<typename _InputIterator, typename _Size, typename _OutputIterator>
 766:c:\program files\daisytoolchain\arm-none-eabi\include\c++\10.2.1\bits\stl_algo.h ****     _GLIBCXX20_CONSTEXPR
 767:c:\program files\daisytoolchain\arm-none-eabi\include\c++\10.2.1\bits\stl_algo.h ****     inline _OutputIterator
 768:c:\program files\daisytoolchain\arm-none-eabi\include\c++\10.2.1\bits\stl_algo.h ****     copy_n(_InputIterator __first, _Size __n, _OutputIterator __result)
 769:c:\program files\daisytoolchain\arm-none-eabi\include\c++\10.2.1\bits\stl_algo.h ****     {
 770:c:\program files\daisytoolchain\arm-none-eabi\include\c++\10.2.1\bits\stl_algo.h ****       // concept requirements
 771:c:\program files\daisytoolchain\arm-none-eabi\include\c++\10.2.1\bits\stl_algo.h ****       __glibcxx_function_requires(_InputIteratorConcept<_InputIterator>)
 772:c:\program files\daisytoolchain\arm-none-eabi\include\c++\10.2.1\bits\stl_algo.h ****       __glibcxx_function_requires(_OutputIteratorConcept<_OutputIterator,
 773:c:\program files\daisytoolchain\arm-none-eabi\include\c++\10.2.1\bits\stl_algo.h **** 	    typename iterator_traits<_InputIterator>::value_type>)
 774:c:\program files\daisytoolchain\arm-none-eabi\include\c++\10.2.1\bits\stl_algo.h ****       __glibcxx_requires_can_increment(__first, __n);
 775:c:\program files\daisytoolchain\arm-none-eabi\include\c++\10.2.1\bits\stl_algo.h ****       __glibcxx_requires_can_increment(__result, __n);
 776:c:\program files\daisytoolchain\arm-none-eabi\include\c++\10.2.1\bits\stl_algo.h **** 
 777:c:\program files\daisytoolchain\arm-none-eabi\include\c++\10.2.1\bits\stl_algo.h ****       return std::__copy_n(__first, __n, __result,
 778:c:\program files\daisytoolchain\arm-none-eabi\include\c++\10.2.1\bits\stl_algo.h **** 			   std::__iterator_category(__first));
 779:c:\program files\daisytoolchain\arm-none-eabi\include\c++\10.2.1\bits\stl_algo.h ****     }
 780:c:\program files\daisytoolchain\arm-none-eabi\include\c++\10.2.1\bits\stl_algo.h **** 
 781:c:\program files\daisytoolchain\arm-none-eabi\include\c++\10.2.1\bits\stl_algo.h ****   /**
 782:c:\program files\daisytoolchain\arm-none-eabi\include\c++\10.2.1\bits\stl_algo.h ****    *  @brief Copy the elements of a sequence to separate output sequences
 783:c:\program files\daisytoolchain\arm-none-eabi\include\c++\10.2.1\bits\stl_algo.h ****    *         depending on the truth value of a predicate.
 784:c:\program files\daisytoolchain\arm-none-eabi\include\c++\10.2.1\bits\stl_algo.h ****    *  @ingroup mutating_algorithms
 785:c:\program files\daisytoolchain\arm-none-eabi\include\c++\10.2.1\bits\stl_algo.h ****    *  @param  __first   An input iterator.
 786:c:\program files\daisytoolchain\arm-none-eabi\include\c++\10.2.1\bits\stl_algo.h ****    *  @param  __last    An input iterator.
 787:c:\program files\daisytoolchain\arm-none-eabi\include\c++\10.2.1\bits\stl_algo.h ****    *  @param  __out_true   An output iterator.
 788:c:\program files\daisytoolchain\arm-none-eabi\include\c++\10.2.1\bits\stl_algo.h ****    *  @param  __out_false  An output iterator.
 789:c:\program files\daisytoolchain\arm-none-eabi\include\c++\10.2.1\bits\stl_algo.h ****    *  @param  __pred    A predicate.
 790:c:\program files\daisytoolchain\arm-none-eabi\include\c++\10.2.1\bits\stl_algo.h ****    *  @return   A pair designating the ends of the resulting sequences.
 791:c:\program files\daisytoolchain\arm-none-eabi\include\c++\10.2.1\bits\stl_algo.h ****    *
ARM GAS  C:\Users\digit\AppData\Local\Temp\ccMK4Fcw.s 			page 52


 792:c:\program files\daisytoolchain\arm-none-eabi\include\c++\10.2.1\bits\stl_algo.h ****    *  Copies each element in the range @p [__first,__last) for which
 793:c:\program files\daisytoolchain\arm-none-eabi\include\c++\10.2.1\bits\stl_algo.h ****    *  @p __pred returns true to the range beginning at @p out_true
 794:c:\program files\daisytoolchain\arm-none-eabi\include\c++\10.2.1\bits\stl_algo.h ****    *  and each element for which @p __pred returns false to @p __out_false.
 795:c:\program files\daisytoolchain\arm-none-eabi\include\c++\10.2.1\bits\stl_algo.h ****   */
 796:c:\program files\daisytoolchain\arm-none-eabi\include\c++\10.2.1\bits\stl_algo.h ****   template<typename _InputIterator, typename _OutputIterator1,
 797:c:\program files\daisytoolchain\arm-none-eabi\include\c++\10.2.1\bits\stl_algo.h **** 	   typename _OutputIterator2, typename _Predicate>
 798:c:\program files\daisytoolchain\arm-none-eabi\include\c++\10.2.1\bits\stl_algo.h ****     _GLIBCXX20_CONSTEXPR
 799:c:\program files\daisytoolchain\arm-none-eabi\include\c++\10.2.1\bits\stl_algo.h ****     pair<_OutputIterator1, _OutputIterator2>
 800:c:\program files\daisytoolchain\arm-none-eabi\include\c++\10.2.1\bits\stl_algo.h ****     partition_copy(_InputIterator __first, _InputIterator __last,
 801:c:\program files\daisytoolchain\arm-none-eabi\include\c++\10.2.1\bits\stl_algo.h **** 		   _OutputIterator1 __out_true, _OutputIterator2 __out_false,
 802:c:\program files\daisytoolchain\arm-none-eabi\include\c++\10.2.1\bits\stl_algo.h **** 		   _Predicate __pred)
 803:c:\program files\daisytoolchain\arm-none-eabi\include\c++\10.2.1\bits\stl_algo.h ****     {
 804:c:\program files\daisytoolchain\arm-none-eabi\include\c++\10.2.1\bits\stl_algo.h ****       // concept requirements
 805:c:\program files\daisytoolchain\arm-none-eabi\include\c++\10.2.1\bits\stl_algo.h ****       __glibcxx_function_requires(_InputIteratorConcept<_InputIterator>)
 806:c:\program files\daisytoolchain\arm-none-eabi\include\c++\10.2.1\bits\stl_algo.h ****       __glibcxx_function_requires(_OutputIteratorConcept<_OutputIterator1,
 807:c:\program files\daisytoolchain\arm-none-eabi\include\c++\10.2.1\bits\stl_algo.h **** 	    typename iterator_traits<_InputIterator>::value_type>)
 808:c:\program files\daisytoolchain\arm-none-eabi\include\c++\10.2.1\bits\stl_algo.h ****       __glibcxx_function_requires(_OutputIteratorConcept<_OutputIterator2,
 809:c:\program files\daisytoolchain\arm-none-eabi\include\c++\10.2.1\bits\stl_algo.h **** 	    typename iterator_traits<_InputIterator>::value_type>)
 810:c:\program files\daisytoolchain\arm-none-eabi\include\c++\10.2.1\bits\stl_algo.h ****       __glibcxx_function_requires(_UnaryPredicateConcept<_Predicate,
 811:c:\program files\daisytoolchain\arm-none-eabi\include\c++\10.2.1\bits\stl_algo.h **** 	    typename iterator_traits<_InputIterator>::value_type>)
 812:c:\program files\daisytoolchain\arm-none-eabi\include\c++\10.2.1\bits\stl_algo.h ****       __glibcxx_requires_valid_range(__first, __last);
 813:c:\program files\daisytoolchain\arm-none-eabi\include\c++\10.2.1\bits\stl_algo.h ****       
 814:c:\program files\daisytoolchain\arm-none-eabi\include\c++\10.2.1\bits\stl_algo.h ****       for (; __first != __last; ++__first)
 815:c:\program files\daisytoolchain\arm-none-eabi\include\c++\10.2.1\bits\stl_algo.h **** 	if (__pred(*__first))
 816:c:\program files\daisytoolchain\arm-none-eabi\include\c++\10.2.1\bits\stl_algo.h **** 	  {
 817:c:\program files\daisytoolchain\arm-none-eabi\include\c++\10.2.1\bits\stl_algo.h **** 	    *__out_true = *__first;
 818:c:\program files\daisytoolchain\arm-none-eabi\include\c++\10.2.1\bits\stl_algo.h **** 	    ++__out_true;
 819:c:\program files\daisytoolchain\arm-none-eabi\include\c++\10.2.1\bits\stl_algo.h **** 	  }
 820:c:\program files\daisytoolchain\arm-none-eabi\include\c++\10.2.1\bits\stl_algo.h **** 	else
 821:c:\program files\daisytoolchain\arm-none-eabi\include\c++\10.2.1\bits\stl_algo.h **** 	  {
 822:c:\program files\daisytoolchain\arm-none-eabi\include\c++\10.2.1\bits\stl_algo.h **** 	    *__out_false = *__first;
 823:c:\program files\daisytoolchain\arm-none-eabi\include\c++\10.2.1\bits\stl_algo.h **** 	    ++__out_false;
 824:c:\program files\daisytoolchain\arm-none-eabi\include\c++\10.2.1\bits\stl_algo.h **** 	  }
 825:c:\program files\daisytoolchain\arm-none-eabi\include\c++\10.2.1\bits\stl_algo.h **** 
 826:c:\program files\daisytoolchain\arm-none-eabi\include\c++\10.2.1\bits\stl_algo.h ****       return pair<_OutputIterator1, _OutputIterator2>(__out_true, __out_false);
 827:c:\program files\daisytoolchain\arm-none-eabi\include\c++\10.2.1\bits\stl_algo.h ****     }
 828:c:\program files\daisytoolchain\arm-none-eabi\include\c++\10.2.1\bits\stl_algo.h **** #endif // C++11
 829:c:\program files\daisytoolchain\arm-none-eabi\include\c++\10.2.1\bits\stl_algo.h **** 
 830:c:\program files\daisytoolchain\arm-none-eabi\include\c++\10.2.1\bits\stl_algo.h ****   template<typename _ForwardIterator, typename _Predicate>
 831:c:\program files\daisytoolchain\arm-none-eabi\include\c++\10.2.1\bits\stl_algo.h ****     _GLIBCXX20_CONSTEXPR
 832:c:\program files\daisytoolchain\arm-none-eabi\include\c++\10.2.1\bits\stl_algo.h ****     _ForwardIterator
 833:c:\program files\daisytoolchain\arm-none-eabi\include\c++\10.2.1\bits\stl_algo.h ****     __remove_if(_ForwardIterator __first, _ForwardIterator __last,
 834:c:\program files\daisytoolchain\arm-none-eabi\include\c++\10.2.1\bits\stl_algo.h **** 		_Predicate __pred)
 835:c:\program files\daisytoolchain\arm-none-eabi\include\c++\10.2.1\bits\stl_algo.h ****     {
 836:c:\program files\daisytoolchain\arm-none-eabi\include\c++\10.2.1\bits\stl_algo.h ****       __first = std::__find_if(__first, __last, __pred);
 837:c:\program files\daisytoolchain\arm-none-eabi\include\c++\10.2.1\bits\stl_algo.h ****       if (__first == __last)
 838:c:\program files\daisytoolchain\arm-none-eabi\include\c++\10.2.1\bits\stl_algo.h **** 	return __first;
 839:c:\program files\daisytoolchain\arm-none-eabi\include\c++\10.2.1\bits\stl_algo.h ****       _ForwardIterator __result = __first;
 840:c:\program files\daisytoolchain\arm-none-eabi\include\c++\10.2.1\bits\stl_algo.h ****       ++__first;
 841:c:\program files\daisytoolchain\arm-none-eabi\include\c++\10.2.1\bits\stl_algo.h ****       for (; __first != __last; ++__first)
 842:c:\program files\daisytoolchain\arm-none-eabi\include\c++\10.2.1\bits\stl_algo.h **** 	if (!__pred(__first))
 843:c:\program files\daisytoolchain\arm-none-eabi\include\c++\10.2.1\bits\stl_algo.h **** 	  {
 844:c:\program files\daisytoolchain\arm-none-eabi\include\c++\10.2.1\bits\stl_algo.h **** 	    *__result = _GLIBCXX_MOVE(*__first);
 845:c:\program files\daisytoolchain\arm-none-eabi\include\c++\10.2.1\bits\stl_algo.h **** 	    ++__result;
 846:c:\program files\daisytoolchain\arm-none-eabi\include\c++\10.2.1\bits\stl_algo.h **** 	  }
 847:c:\program files\daisytoolchain\arm-none-eabi\include\c++\10.2.1\bits\stl_algo.h ****       return __result;
 848:c:\program files\daisytoolchain\arm-none-eabi\include\c++\10.2.1\bits\stl_algo.h ****     }
ARM GAS  C:\Users\digit\AppData\Local\Temp\ccMK4Fcw.s 			page 53


 849:c:\program files\daisytoolchain\arm-none-eabi\include\c++\10.2.1\bits\stl_algo.h **** 
 850:c:\program files\daisytoolchain\arm-none-eabi\include\c++\10.2.1\bits\stl_algo.h ****   /**
 851:c:\program files\daisytoolchain\arm-none-eabi\include\c++\10.2.1\bits\stl_algo.h ****    *  @brief Remove elements from a sequence.
 852:c:\program files\daisytoolchain\arm-none-eabi\include\c++\10.2.1\bits\stl_algo.h ****    *  @ingroup mutating_algorithms
 853:c:\program files\daisytoolchain\arm-none-eabi\include\c++\10.2.1\bits\stl_algo.h ****    *  @param  __first  An input iterator.
 854:c:\program files\daisytoolchain\arm-none-eabi\include\c++\10.2.1\bits\stl_algo.h ****    *  @param  __last   An input iterator.
 855:c:\program files\daisytoolchain\arm-none-eabi\include\c++\10.2.1\bits\stl_algo.h ****    *  @param  __value  The value to be removed.
 856:c:\program files\daisytoolchain\arm-none-eabi\include\c++\10.2.1\bits\stl_algo.h ****    *  @return   An iterator designating the end of the resulting sequence.
 857:c:\program files\daisytoolchain\arm-none-eabi\include\c++\10.2.1\bits\stl_algo.h ****    *
 858:c:\program files\daisytoolchain\arm-none-eabi\include\c++\10.2.1\bits\stl_algo.h ****    *  All elements equal to @p __value are removed from the range
 859:c:\program files\daisytoolchain\arm-none-eabi\include\c++\10.2.1\bits\stl_algo.h ****    *  @p [__first,__last).
 860:c:\program files\daisytoolchain\arm-none-eabi\include\c++\10.2.1\bits\stl_algo.h ****    *
 861:c:\program files\daisytoolchain\arm-none-eabi\include\c++\10.2.1\bits\stl_algo.h ****    *  remove() is stable, so the relative order of elements that are
 862:c:\program files\daisytoolchain\arm-none-eabi\include\c++\10.2.1\bits\stl_algo.h ****    *  not removed is unchanged.
 863:c:\program files\daisytoolchain\arm-none-eabi\include\c++\10.2.1\bits\stl_algo.h ****    *
 864:c:\program files\daisytoolchain\arm-none-eabi\include\c++\10.2.1\bits\stl_algo.h ****    *  Elements between the end of the resulting sequence and @p __last
 865:c:\program files\daisytoolchain\arm-none-eabi\include\c++\10.2.1\bits\stl_algo.h ****    *  are still present, but their value is unspecified.
 866:c:\program files\daisytoolchain\arm-none-eabi\include\c++\10.2.1\bits\stl_algo.h ****   */
 867:c:\program files\daisytoolchain\arm-none-eabi\include\c++\10.2.1\bits\stl_algo.h ****   template<typename _ForwardIterator, typename _Tp>
 868:c:\program files\daisytoolchain\arm-none-eabi\include\c++\10.2.1\bits\stl_algo.h ****     _GLIBCXX20_CONSTEXPR
 869:c:\program files\daisytoolchain\arm-none-eabi\include\c++\10.2.1\bits\stl_algo.h ****     inline _ForwardIterator
 870:c:\program files\daisytoolchain\arm-none-eabi\include\c++\10.2.1\bits\stl_algo.h ****     remove(_ForwardIterator __first, _ForwardIterator __last,
 871:c:\program files\daisytoolchain\arm-none-eabi\include\c++\10.2.1\bits\stl_algo.h **** 	   const _Tp& __value)
 872:c:\program files\daisytoolchain\arm-none-eabi\include\c++\10.2.1\bits\stl_algo.h ****     {
 873:c:\program files\daisytoolchain\arm-none-eabi\include\c++\10.2.1\bits\stl_algo.h ****       // concept requirements
 874:c:\program files\daisytoolchain\arm-none-eabi\include\c++\10.2.1\bits\stl_algo.h ****       __glibcxx_function_requires(_Mutable_ForwardIteratorConcept<
 875:c:\program files\daisytoolchain\arm-none-eabi\include\c++\10.2.1\bits\stl_algo.h **** 				  _ForwardIterator>)
 876:c:\program files\daisytoolchain\arm-none-eabi\include\c++\10.2.1\bits\stl_algo.h ****       __glibcxx_function_requires(_EqualOpConcept<
 877:c:\program files\daisytoolchain\arm-none-eabi\include\c++\10.2.1\bits\stl_algo.h **** 	    typename iterator_traits<_ForwardIterator>::value_type, _Tp>)
 878:c:\program files\daisytoolchain\arm-none-eabi\include\c++\10.2.1\bits\stl_algo.h ****       __glibcxx_requires_valid_range(__first, __last);
 879:c:\program files\daisytoolchain\arm-none-eabi\include\c++\10.2.1\bits\stl_algo.h **** 
 880:c:\program files\daisytoolchain\arm-none-eabi\include\c++\10.2.1\bits\stl_algo.h ****       return std::__remove_if(__first, __last,
 881:c:\program files\daisytoolchain\arm-none-eabi\include\c++\10.2.1\bits\stl_algo.h **** 		__gnu_cxx::__ops::__iter_equals_val(__value));
 882:c:\program files\daisytoolchain\arm-none-eabi\include\c++\10.2.1\bits\stl_algo.h ****     }
 883:c:\program files\daisytoolchain\arm-none-eabi\include\c++\10.2.1\bits\stl_algo.h **** 
 884:c:\program files\daisytoolchain\arm-none-eabi\include\c++\10.2.1\bits\stl_algo.h ****   /**
 885:c:\program files\daisytoolchain\arm-none-eabi\include\c++\10.2.1\bits\stl_algo.h ****    *  @brief Remove elements from a sequence using a predicate.
 886:c:\program files\daisytoolchain\arm-none-eabi\include\c++\10.2.1\bits\stl_algo.h ****    *  @ingroup mutating_algorithms
 887:c:\program files\daisytoolchain\arm-none-eabi\include\c++\10.2.1\bits\stl_algo.h ****    *  @param  __first  A forward iterator.
 888:c:\program files\daisytoolchain\arm-none-eabi\include\c++\10.2.1\bits\stl_algo.h ****    *  @param  __last   A forward iterator.
 889:c:\program files\daisytoolchain\arm-none-eabi\include\c++\10.2.1\bits\stl_algo.h ****    *  @param  __pred   A predicate.
 890:c:\program files\daisytoolchain\arm-none-eabi\include\c++\10.2.1\bits\stl_algo.h ****    *  @return   An iterator designating the end of the resulting sequence.
 891:c:\program files\daisytoolchain\arm-none-eabi\include\c++\10.2.1\bits\stl_algo.h ****    *
 892:c:\program files\daisytoolchain\arm-none-eabi\include\c++\10.2.1\bits\stl_algo.h ****    *  All elements for which @p __pred returns true are removed from the range
 893:c:\program files\daisytoolchain\arm-none-eabi\include\c++\10.2.1\bits\stl_algo.h ****    *  @p [__first,__last).
 894:c:\program files\daisytoolchain\arm-none-eabi\include\c++\10.2.1\bits\stl_algo.h ****    *
 895:c:\program files\daisytoolchain\arm-none-eabi\include\c++\10.2.1\bits\stl_algo.h ****    *  remove_if() is stable, so the relative order of elements that are
 896:c:\program files\daisytoolchain\arm-none-eabi\include\c++\10.2.1\bits\stl_algo.h ****    *  not removed is unchanged.
 897:c:\program files\daisytoolchain\arm-none-eabi\include\c++\10.2.1\bits\stl_algo.h ****    *
 898:c:\program files\daisytoolchain\arm-none-eabi\include\c++\10.2.1\bits\stl_algo.h ****    *  Elements between the end of the resulting sequence and @p __last
 899:c:\program files\daisytoolchain\arm-none-eabi\include\c++\10.2.1\bits\stl_algo.h ****    *  are still present, but their value is unspecified.
 900:c:\program files\daisytoolchain\arm-none-eabi\include\c++\10.2.1\bits\stl_algo.h ****   */
 901:c:\program files\daisytoolchain\arm-none-eabi\include\c++\10.2.1\bits\stl_algo.h ****   template<typename _ForwardIterator, typename _Predicate>
 902:c:\program files\daisytoolchain\arm-none-eabi\include\c++\10.2.1\bits\stl_algo.h ****     _GLIBCXX20_CONSTEXPR
 903:c:\program files\daisytoolchain\arm-none-eabi\include\c++\10.2.1\bits\stl_algo.h ****     inline _ForwardIterator
 904:c:\program files\daisytoolchain\arm-none-eabi\include\c++\10.2.1\bits\stl_algo.h ****     remove_if(_ForwardIterator __first, _ForwardIterator __last,
 905:c:\program files\daisytoolchain\arm-none-eabi\include\c++\10.2.1\bits\stl_algo.h **** 	      _Predicate __pred)
ARM GAS  C:\Users\digit\AppData\Local\Temp\ccMK4Fcw.s 			page 54


 906:c:\program files\daisytoolchain\arm-none-eabi\include\c++\10.2.1\bits\stl_algo.h ****     {
 907:c:\program files\daisytoolchain\arm-none-eabi\include\c++\10.2.1\bits\stl_algo.h ****       // concept requirements
 908:c:\program files\daisytoolchain\arm-none-eabi\include\c++\10.2.1\bits\stl_algo.h ****       __glibcxx_function_requires(_Mutable_ForwardIteratorConcept<
 909:c:\program files\daisytoolchain\arm-none-eabi\include\c++\10.2.1\bits\stl_algo.h **** 				  _ForwardIterator>)
 910:c:\program files\daisytoolchain\arm-none-eabi\include\c++\10.2.1\bits\stl_algo.h ****       __glibcxx_function_requires(_UnaryPredicateConcept<_Predicate,
 911:c:\program files\daisytoolchain\arm-none-eabi\include\c++\10.2.1\bits\stl_algo.h **** 	    typename iterator_traits<_ForwardIterator>::value_type>)
 912:c:\program files\daisytoolchain\arm-none-eabi\include\c++\10.2.1\bits\stl_algo.h ****       __glibcxx_requires_valid_range(__first, __last);
 913:c:\program files\daisytoolchain\arm-none-eabi\include\c++\10.2.1\bits\stl_algo.h **** 
 914:c:\program files\daisytoolchain\arm-none-eabi\include\c++\10.2.1\bits\stl_algo.h ****       return std::__remove_if(__first, __last,
 915:c:\program files\daisytoolchain\arm-none-eabi\include\c++\10.2.1\bits\stl_algo.h **** 			      __gnu_cxx::__ops::__pred_iter(__pred));
 916:c:\program files\daisytoolchain\arm-none-eabi\include\c++\10.2.1\bits\stl_algo.h ****     }
 917:c:\program files\daisytoolchain\arm-none-eabi\include\c++\10.2.1\bits\stl_algo.h **** 
 918:c:\program files\daisytoolchain\arm-none-eabi\include\c++\10.2.1\bits\stl_algo.h ****   template<typename _ForwardIterator, typename _BinaryPredicate>
 919:c:\program files\daisytoolchain\arm-none-eabi\include\c++\10.2.1\bits\stl_algo.h ****     _GLIBCXX20_CONSTEXPR
 920:c:\program files\daisytoolchain\arm-none-eabi\include\c++\10.2.1\bits\stl_algo.h ****     _ForwardIterator
 921:c:\program files\daisytoolchain\arm-none-eabi\include\c++\10.2.1\bits\stl_algo.h ****     __adjacent_find(_ForwardIterator __first, _ForwardIterator __last,
 922:c:\program files\daisytoolchain\arm-none-eabi\include\c++\10.2.1\bits\stl_algo.h **** 		    _BinaryPredicate __binary_pred)
 923:c:\program files\daisytoolchain\arm-none-eabi\include\c++\10.2.1\bits\stl_algo.h ****     {
 924:c:\program files\daisytoolchain\arm-none-eabi\include\c++\10.2.1\bits\stl_algo.h ****       if (__first == __last)
 925:c:\program files\daisytoolchain\arm-none-eabi\include\c++\10.2.1\bits\stl_algo.h **** 	return __last;
 926:c:\program files\daisytoolchain\arm-none-eabi\include\c++\10.2.1\bits\stl_algo.h ****       _ForwardIterator __next = __first;
 927:c:\program files\daisytoolchain\arm-none-eabi\include\c++\10.2.1\bits\stl_algo.h ****       while (++__next != __last)
 928:c:\program files\daisytoolchain\arm-none-eabi\include\c++\10.2.1\bits\stl_algo.h **** 	{
 929:c:\program files\daisytoolchain\arm-none-eabi\include\c++\10.2.1\bits\stl_algo.h **** 	  if (__binary_pred(__first, __next))
 930:c:\program files\daisytoolchain\arm-none-eabi\include\c++\10.2.1\bits\stl_algo.h **** 	    return __first;
 931:c:\program files\daisytoolchain\arm-none-eabi\include\c++\10.2.1\bits\stl_algo.h **** 	  __first = __next;
 932:c:\program files\daisytoolchain\arm-none-eabi\include\c++\10.2.1\bits\stl_algo.h **** 	}
 933:c:\program files\daisytoolchain\arm-none-eabi\include\c++\10.2.1\bits\stl_algo.h ****       return __last;
 934:c:\program files\daisytoolchain\arm-none-eabi\include\c++\10.2.1\bits\stl_algo.h ****     }
 935:c:\program files\daisytoolchain\arm-none-eabi\include\c++\10.2.1\bits\stl_algo.h **** 
 936:c:\program files\daisytoolchain\arm-none-eabi\include\c++\10.2.1\bits\stl_algo.h ****   template<typename _ForwardIterator, typename _BinaryPredicate>
 937:c:\program files\daisytoolchain\arm-none-eabi\include\c++\10.2.1\bits\stl_algo.h ****     _GLIBCXX20_CONSTEXPR
 938:c:\program files\daisytoolchain\arm-none-eabi\include\c++\10.2.1\bits\stl_algo.h ****     _ForwardIterator
 939:c:\program files\daisytoolchain\arm-none-eabi\include\c++\10.2.1\bits\stl_algo.h ****     __unique(_ForwardIterator __first, _ForwardIterator __last,
 940:c:\program files\daisytoolchain\arm-none-eabi\include\c++\10.2.1\bits\stl_algo.h **** 	     _BinaryPredicate __binary_pred)
 941:c:\program files\daisytoolchain\arm-none-eabi\include\c++\10.2.1\bits\stl_algo.h ****     {
 942:c:\program files\daisytoolchain\arm-none-eabi\include\c++\10.2.1\bits\stl_algo.h ****       // Skip the beginning, if already unique.
 943:c:\program files\daisytoolchain\arm-none-eabi\include\c++\10.2.1\bits\stl_algo.h ****       __first = std::__adjacent_find(__first, __last, __binary_pred);
 944:c:\program files\daisytoolchain\arm-none-eabi\include\c++\10.2.1\bits\stl_algo.h ****       if (__first == __last)
 945:c:\program files\daisytoolchain\arm-none-eabi\include\c++\10.2.1\bits\stl_algo.h **** 	return __last;
 946:c:\program files\daisytoolchain\arm-none-eabi\include\c++\10.2.1\bits\stl_algo.h **** 
 947:c:\program files\daisytoolchain\arm-none-eabi\include\c++\10.2.1\bits\stl_algo.h ****       // Do the real copy work.
 948:c:\program files\daisytoolchain\arm-none-eabi\include\c++\10.2.1\bits\stl_algo.h ****       _ForwardIterator __dest = __first;
 949:c:\program files\daisytoolchain\arm-none-eabi\include\c++\10.2.1\bits\stl_algo.h ****       ++__first;
 950:c:\program files\daisytoolchain\arm-none-eabi\include\c++\10.2.1\bits\stl_algo.h ****       while (++__first != __last)
 951:c:\program files\daisytoolchain\arm-none-eabi\include\c++\10.2.1\bits\stl_algo.h **** 	if (!__binary_pred(__dest, __first))
 952:c:\program files\daisytoolchain\arm-none-eabi\include\c++\10.2.1\bits\stl_algo.h **** 	  *++__dest = _GLIBCXX_MOVE(*__first);
 953:c:\program files\daisytoolchain\arm-none-eabi\include\c++\10.2.1\bits\stl_algo.h ****       return ++__dest;
 954:c:\program files\daisytoolchain\arm-none-eabi\include\c++\10.2.1\bits\stl_algo.h ****     }
 955:c:\program files\daisytoolchain\arm-none-eabi\include\c++\10.2.1\bits\stl_algo.h **** 
 956:c:\program files\daisytoolchain\arm-none-eabi\include\c++\10.2.1\bits\stl_algo.h ****   /**
 957:c:\program files\daisytoolchain\arm-none-eabi\include\c++\10.2.1\bits\stl_algo.h ****    *  @brief Remove consecutive duplicate values from a sequence.
 958:c:\program files\daisytoolchain\arm-none-eabi\include\c++\10.2.1\bits\stl_algo.h ****    *  @ingroup mutating_algorithms
 959:c:\program files\daisytoolchain\arm-none-eabi\include\c++\10.2.1\bits\stl_algo.h ****    *  @param  __first  A forward iterator.
 960:c:\program files\daisytoolchain\arm-none-eabi\include\c++\10.2.1\bits\stl_algo.h ****    *  @param  __last   A forward iterator.
 961:c:\program files\daisytoolchain\arm-none-eabi\include\c++\10.2.1\bits\stl_algo.h ****    *  @return  An iterator designating the end of the resulting sequence.
 962:c:\program files\daisytoolchain\arm-none-eabi\include\c++\10.2.1\bits\stl_algo.h ****    *
ARM GAS  C:\Users\digit\AppData\Local\Temp\ccMK4Fcw.s 			page 55


 963:c:\program files\daisytoolchain\arm-none-eabi\include\c++\10.2.1\bits\stl_algo.h ****    *  Removes all but the first element from each group of consecutive
 964:c:\program files\daisytoolchain\arm-none-eabi\include\c++\10.2.1\bits\stl_algo.h ****    *  values that compare equal.
 965:c:\program files\daisytoolchain\arm-none-eabi\include\c++\10.2.1\bits\stl_algo.h ****    *  unique() is stable, so the relative order of elements that are
 966:c:\program files\daisytoolchain\arm-none-eabi\include\c++\10.2.1\bits\stl_algo.h ****    *  not removed is unchanged.
 967:c:\program files\daisytoolchain\arm-none-eabi\include\c++\10.2.1\bits\stl_algo.h ****    *  Elements between the end of the resulting sequence and @p __last
 968:c:\program files\daisytoolchain\arm-none-eabi\include\c++\10.2.1\bits\stl_algo.h ****    *  are still present, but their value is unspecified.
 969:c:\program files\daisytoolchain\arm-none-eabi\include\c++\10.2.1\bits\stl_algo.h ****   */
 970:c:\program files\daisytoolchain\arm-none-eabi\include\c++\10.2.1\bits\stl_algo.h ****   template<typename _ForwardIterator>
 971:c:\program files\daisytoolchain\arm-none-eabi\include\c++\10.2.1\bits\stl_algo.h ****     _GLIBCXX20_CONSTEXPR
 972:c:\program files\daisytoolchain\arm-none-eabi\include\c++\10.2.1\bits\stl_algo.h ****     inline _ForwardIterator
 973:c:\program files\daisytoolchain\arm-none-eabi\include\c++\10.2.1\bits\stl_algo.h ****     unique(_ForwardIterator __first, _ForwardIterator __last)
 974:c:\program files\daisytoolchain\arm-none-eabi\include\c++\10.2.1\bits\stl_algo.h ****     {
 975:c:\program files\daisytoolchain\arm-none-eabi\include\c++\10.2.1\bits\stl_algo.h ****       // concept requirements
 976:c:\program files\daisytoolchain\arm-none-eabi\include\c++\10.2.1\bits\stl_algo.h ****       __glibcxx_function_requires(_Mutable_ForwardIteratorConcept<
 977:c:\program files\daisytoolchain\arm-none-eabi\include\c++\10.2.1\bits\stl_algo.h **** 				  _ForwardIterator>)
 978:c:\program files\daisytoolchain\arm-none-eabi\include\c++\10.2.1\bits\stl_algo.h ****       __glibcxx_function_requires(_EqualityComparableConcept<
 979:c:\program files\daisytoolchain\arm-none-eabi\include\c++\10.2.1\bits\stl_algo.h **** 		     typename iterator_traits<_ForwardIterator>::value_type>)
 980:c:\program files\daisytoolchain\arm-none-eabi\include\c++\10.2.1\bits\stl_algo.h ****       __glibcxx_requires_valid_range(__first, __last);
 981:c:\program files\daisytoolchain\arm-none-eabi\include\c++\10.2.1\bits\stl_algo.h **** 
 982:c:\program files\daisytoolchain\arm-none-eabi\include\c++\10.2.1\bits\stl_algo.h ****       return std::__unique(__first, __last,
 983:c:\program files\daisytoolchain\arm-none-eabi\include\c++\10.2.1\bits\stl_algo.h **** 			   __gnu_cxx::__ops::__iter_equal_to_iter());
 984:c:\program files\daisytoolchain\arm-none-eabi\include\c++\10.2.1\bits\stl_algo.h ****     }
 985:c:\program files\daisytoolchain\arm-none-eabi\include\c++\10.2.1\bits\stl_algo.h **** 
 986:c:\program files\daisytoolchain\arm-none-eabi\include\c++\10.2.1\bits\stl_algo.h ****   /**
 987:c:\program files\daisytoolchain\arm-none-eabi\include\c++\10.2.1\bits\stl_algo.h ****    *  @brief Remove consecutive values from a sequence using a predicate.
 988:c:\program files\daisytoolchain\arm-none-eabi\include\c++\10.2.1\bits\stl_algo.h ****    *  @ingroup mutating_algorithms
 989:c:\program files\daisytoolchain\arm-none-eabi\include\c++\10.2.1\bits\stl_algo.h ****    *  @param  __first        A forward iterator.
 990:c:\program files\daisytoolchain\arm-none-eabi\include\c++\10.2.1\bits\stl_algo.h ****    *  @param  __last         A forward iterator.
 991:c:\program files\daisytoolchain\arm-none-eabi\include\c++\10.2.1\bits\stl_algo.h ****    *  @param  __binary_pred  A binary predicate.
 992:c:\program files\daisytoolchain\arm-none-eabi\include\c++\10.2.1\bits\stl_algo.h ****    *  @return  An iterator designating the end of the resulting sequence.
 993:c:\program files\daisytoolchain\arm-none-eabi\include\c++\10.2.1\bits\stl_algo.h ****    *
 994:c:\program files\daisytoolchain\arm-none-eabi\include\c++\10.2.1\bits\stl_algo.h ****    *  Removes all but the first element from each group of consecutive
 995:c:\program files\daisytoolchain\arm-none-eabi\include\c++\10.2.1\bits\stl_algo.h ****    *  values for which @p __binary_pred returns true.
 996:c:\program files\daisytoolchain\arm-none-eabi\include\c++\10.2.1\bits\stl_algo.h ****    *  unique() is stable, so the relative order of elements that are
 997:c:\program files\daisytoolchain\arm-none-eabi\include\c++\10.2.1\bits\stl_algo.h ****    *  not removed is unchanged.
 998:c:\program files\daisytoolchain\arm-none-eabi\include\c++\10.2.1\bits\stl_algo.h ****    *  Elements between the end of the resulting sequence and @p __last
 999:c:\program files\daisytoolchain\arm-none-eabi\include\c++\10.2.1\bits\stl_algo.h ****    *  are still present, but their value is unspecified.
1000:c:\program files\daisytoolchain\arm-none-eabi\include\c++\10.2.1\bits\stl_algo.h ****   */
1001:c:\program files\daisytoolchain\arm-none-eabi\include\c++\10.2.1\bits\stl_algo.h ****   template<typename _ForwardIterator, typename _BinaryPredicate>
1002:c:\program files\daisytoolchain\arm-none-eabi\include\c++\10.2.1\bits\stl_algo.h ****     _GLIBCXX20_CONSTEXPR
1003:c:\program files\daisytoolchain\arm-none-eabi\include\c++\10.2.1\bits\stl_algo.h ****     inline _ForwardIterator
1004:c:\program files\daisytoolchain\arm-none-eabi\include\c++\10.2.1\bits\stl_algo.h ****     unique(_ForwardIterator __first, _ForwardIterator __last,
1005:c:\program files\daisytoolchain\arm-none-eabi\include\c++\10.2.1\bits\stl_algo.h **** 	   _BinaryPredicate __binary_pred)
1006:c:\program files\daisytoolchain\arm-none-eabi\include\c++\10.2.1\bits\stl_algo.h ****     {
1007:c:\program files\daisytoolchain\arm-none-eabi\include\c++\10.2.1\bits\stl_algo.h ****       // concept requirements
1008:c:\program files\daisytoolchain\arm-none-eabi\include\c++\10.2.1\bits\stl_algo.h ****       __glibcxx_function_requires(_Mutable_ForwardIteratorConcept<
1009:c:\program files\daisytoolchain\arm-none-eabi\include\c++\10.2.1\bits\stl_algo.h **** 				  _ForwardIterator>)
1010:c:\program files\daisytoolchain\arm-none-eabi\include\c++\10.2.1\bits\stl_algo.h ****       __glibcxx_function_requires(_BinaryPredicateConcept<_BinaryPredicate,
1011:c:\program files\daisytoolchain\arm-none-eabi\include\c++\10.2.1\bits\stl_algo.h **** 		typename iterator_traits<_ForwardIterator>::value_type,
1012:c:\program files\daisytoolchain\arm-none-eabi\include\c++\10.2.1\bits\stl_algo.h **** 		typename iterator_traits<_ForwardIterator>::value_type>)
1013:c:\program files\daisytoolchain\arm-none-eabi\include\c++\10.2.1\bits\stl_algo.h ****       __glibcxx_requires_valid_range(__first, __last);
1014:c:\program files\daisytoolchain\arm-none-eabi\include\c++\10.2.1\bits\stl_algo.h **** 
1015:c:\program files\daisytoolchain\arm-none-eabi\include\c++\10.2.1\bits\stl_algo.h ****       return std::__unique(__first, __last,
1016:c:\program files\daisytoolchain\arm-none-eabi\include\c++\10.2.1\bits\stl_algo.h **** 			   __gnu_cxx::__ops::__iter_comp_iter(__binary_pred));
1017:c:\program files\daisytoolchain\arm-none-eabi\include\c++\10.2.1\bits\stl_algo.h ****     }
1018:c:\program files\daisytoolchain\arm-none-eabi\include\c++\10.2.1\bits\stl_algo.h **** 
1019:c:\program files\daisytoolchain\arm-none-eabi\include\c++\10.2.1\bits\stl_algo.h ****   /**
ARM GAS  C:\Users\digit\AppData\Local\Temp\ccMK4Fcw.s 			page 56


1020:c:\program files\daisytoolchain\arm-none-eabi\include\c++\10.2.1\bits\stl_algo.h ****    *  This is an uglified
1021:c:\program files\daisytoolchain\arm-none-eabi\include\c++\10.2.1\bits\stl_algo.h ****    *  unique_copy(_InputIterator, _InputIterator, _OutputIterator,
1022:c:\program files\daisytoolchain\arm-none-eabi\include\c++\10.2.1\bits\stl_algo.h ****    *              _BinaryPredicate)
1023:c:\program files\daisytoolchain\arm-none-eabi\include\c++\10.2.1\bits\stl_algo.h ****    *  overloaded for forward iterators and output iterator as result.
1024:c:\program files\daisytoolchain\arm-none-eabi\include\c++\10.2.1\bits\stl_algo.h ****   */
1025:c:\program files\daisytoolchain\arm-none-eabi\include\c++\10.2.1\bits\stl_algo.h ****   template<typename _ForwardIterator, typename _OutputIterator,
1026:c:\program files\daisytoolchain\arm-none-eabi\include\c++\10.2.1\bits\stl_algo.h **** 	   typename _BinaryPredicate>
1027:c:\program files\daisytoolchain\arm-none-eabi\include\c++\10.2.1\bits\stl_algo.h ****     _GLIBCXX20_CONSTEXPR
1028:c:\program files\daisytoolchain\arm-none-eabi\include\c++\10.2.1\bits\stl_algo.h ****     _OutputIterator
1029:c:\program files\daisytoolchain\arm-none-eabi\include\c++\10.2.1\bits\stl_algo.h ****     __unique_copy(_ForwardIterator __first, _ForwardIterator __last,
1030:c:\program files\daisytoolchain\arm-none-eabi\include\c++\10.2.1\bits\stl_algo.h **** 		  _OutputIterator __result, _BinaryPredicate __binary_pred,
1031:c:\program files\daisytoolchain\arm-none-eabi\include\c++\10.2.1\bits\stl_algo.h **** 		  forward_iterator_tag, output_iterator_tag)
1032:c:\program files\daisytoolchain\arm-none-eabi\include\c++\10.2.1\bits\stl_algo.h ****     {
1033:c:\program files\daisytoolchain\arm-none-eabi\include\c++\10.2.1\bits\stl_algo.h ****       // concept requirements -- iterators already checked
1034:c:\program files\daisytoolchain\arm-none-eabi\include\c++\10.2.1\bits\stl_algo.h ****       __glibcxx_function_requires(_BinaryPredicateConcept<_BinaryPredicate,
1035:c:\program files\daisytoolchain\arm-none-eabi\include\c++\10.2.1\bits\stl_algo.h **** 	  typename iterator_traits<_ForwardIterator>::value_type,
1036:c:\program files\daisytoolchain\arm-none-eabi\include\c++\10.2.1\bits\stl_algo.h **** 	  typename iterator_traits<_ForwardIterator>::value_type>)
1037:c:\program files\daisytoolchain\arm-none-eabi\include\c++\10.2.1\bits\stl_algo.h **** 
1038:c:\program files\daisytoolchain\arm-none-eabi\include\c++\10.2.1\bits\stl_algo.h ****       _ForwardIterator __next = __first;
1039:c:\program files\daisytoolchain\arm-none-eabi\include\c++\10.2.1\bits\stl_algo.h ****       *__result = *__first;
1040:c:\program files\daisytoolchain\arm-none-eabi\include\c++\10.2.1\bits\stl_algo.h ****       while (++__next != __last)
1041:c:\program files\daisytoolchain\arm-none-eabi\include\c++\10.2.1\bits\stl_algo.h **** 	if (!__binary_pred(__first, __next))
1042:c:\program files\daisytoolchain\arm-none-eabi\include\c++\10.2.1\bits\stl_algo.h **** 	  {
1043:c:\program files\daisytoolchain\arm-none-eabi\include\c++\10.2.1\bits\stl_algo.h **** 	    __first = __next;
1044:c:\program files\daisytoolchain\arm-none-eabi\include\c++\10.2.1\bits\stl_algo.h **** 	    *++__result = *__first;
1045:c:\program files\daisytoolchain\arm-none-eabi\include\c++\10.2.1\bits\stl_algo.h **** 	  }
1046:c:\program files\daisytoolchain\arm-none-eabi\include\c++\10.2.1\bits\stl_algo.h ****       return ++__result;
1047:c:\program files\daisytoolchain\arm-none-eabi\include\c++\10.2.1\bits\stl_algo.h ****     }
1048:c:\program files\daisytoolchain\arm-none-eabi\include\c++\10.2.1\bits\stl_algo.h **** 
1049:c:\program files\daisytoolchain\arm-none-eabi\include\c++\10.2.1\bits\stl_algo.h ****   /**
1050:c:\program files\daisytoolchain\arm-none-eabi\include\c++\10.2.1\bits\stl_algo.h ****    *  This is an uglified
1051:c:\program files\daisytoolchain\arm-none-eabi\include\c++\10.2.1\bits\stl_algo.h ****    *  unique_copy(_InputIterator, _InputIterator, _OutputIterator,
1052:c:\program files\daisytoolchain\arm-none-eabi\include\c++\10.2.1\bits\stl_algo.h ****    *              _BinaryPredicate)
1053:c:\program files\daisytoolchain\arm-none-eabi\include\c++\10.2.1\bits\stl_algo.h ****    *  overloaded for input iterators and output iterator as result.
1054:c:\program files\daisytoolchain\arm-none-eabi\include\c++\10.2.1\bits\stl_algo.h ****   */
1055:c:\program files\daisytoolchain\arm-none-eabi\include\c++\10.2.1\bits\stl_algo.h ****   template<typename _InputIterator, typename _OutputIterator,
1056:c:\program files\daisytoolchain\arm-none-eabi\include\c++\10.2.1\bits\stl_algo.h **** 	   typename _BinaryPredicate>
1057:c:\program files\daisytoolchain\arm-none-eabi\include\c++\10.2.1\bits\stl_algo.h ****     _GLIBCXX20_CONSTEXPR
1058:c:\program files\daisytoolchain\arm-none-eabi\include\c++\10.2.1\bits\stl_algo.h ****     _OutputIterator
1059:c:\program files\daisytoolchain\arm-none-eabi\include\c++\10.2.1\bits\stl_algo.h ****     __unique_copy(_InputIterator __first, _InputIterator __last,
1060:c:\program files\daisytoolchain\arm-none-eabi\include\c++\10.2.1\bits\stl_algo.h **** 		  _OutputIterator __result, _BinaryPredicate __binary_pred,
1061:c:\program files\daisytoolchain\arm-none-eabi\include\c++\10.2.1\bits\stl_algo.h **** 		  input_iterator_tag, output_iterator_tag)
1062:c:\program files\daisytoolchain\arm-none-eabi\include\c++\10.2.1\bits\stl_algo.h ****     {
1063:c:\program files\daisytoolchain\arm-none-eabi\include\c++\10.2.1\bits\stl_algo.h ****       // concept requirements -- iterators already checked
1064:c:\program files\daisytoolchain\arm-none-eabi\include\c++\10.2.1\bits\stl_algo.h ****       __glibcxx_function_requires(_BinaryPredicateConcept<_BinaryPredicate,
1065:c:\program files\daisytoolchain\arm-none-eabi\include\c++\10.2.1\bits\stl_algo.h **** 	  typename iterator_traits<_InputIterator>::value_type,
1066:c:\program files\daisytoolchain\arm-none-eabi\include\c++\10.2.1\bits\stl_algo.h **** 	  typename iterator_traits<_InputIterator>::value_type>)
1067:c:\program files\daisytoolchain\arm-none-eabi\include\c++\10.2.1\bits\stl_algo.h **** 
1068:c:\program files\daisytoolchain\arm-none-eabi\include\c++\10.2.1\bits\stl_algo.h ****       typename iterator_traits<_InputIterator>::value_type __value = *__first;
1069:c:\program files\daisytoolchain\arm-none-eabi\include\c++\10.2.1\bits\stl_algo.h ****       __decltype(__gnu_cxx::__ops::__iter_comp_val(__binary_pred))
1070:c:\program files\daisytoolchain\arm-none-eabi\include\c++\10.2.1\bits\stl_algo.h **** 	__rebound_pred
1071:c:\program files\daisytoolchain\arm-none-eabi\include\c++\10.2.1\bits\stl_algo.h **** 	= __gnu_cxx::__ops::__iter_comp_val(__binary_pred);
1072:c:\program files\daisytoolchain\arm-none-eabi\include\c++\10.2.1\bits\stl_algo.h ****       *__result = __value;
1073:c:\program files\daisytoolchain\arm-none-eabi\include\c++\10.2.1\bits\stl_algo.h ****       while (++__first != __last)
1074:c:\program files\daisytoolchain\arm-none-eabi\include\c++\10.2.1\bits\stl_algo.h **** 	if (!__rebound_pred(__first, __value))
1075:c:\program files\daisytoolchain\arm-none-eabi\include\c++\10.2.1\bits\stl_algo.h **** 	  {
1076:c:\program files\daisytoolchain\arm-none-eabi\include\c++\10.2.1\bits\stl_algo.h **** 	    __value = *__first;
ARM GAS  C:\Users\digit\AppData\Local\Temp\ccMK4Fcw.s 			page 57


1077:c:\program files\daisytoolchain\arm-none-eabi\include\c++\10.2.1\bits\stl_algo.h **** 	    *++__result = __value;
1078:c:\program files\daisytoolchain\arm-none-eabi\include\c++\10.2.1\bits\stl_algo.h **** 	  }
1079:c:\program files\daisytoolchain\arm-none-eabi\include\c++\10.2.1\bits\stl_algo.h ****       return ++__result;
1080:c:\program files\daisytoolchain\arm-none-eabi\include\c++\10.2.1\bits\stl_algo.h ****     }
1081:c:\program files\daisytoolchain\arm-none-eabi\include\c++\10.2.1\bits\stl_algo.h **** 
1082:c:\program files\daisytoolchain\arm-none-eabi\include\c++\10.2.1\bits\stl_algo.h ****   /**
1083:c:\program files\daisytoolchain\arm-none-eabi\include\c++\10.2.1\bits\stl_algo.h ****    *  This is an uglified
1084:c:\program files\daisytoolchain\arm-none-eabi\include\c++\10.2.1\bits\stl_algo.h ****    *  unique_copy(_InputIterator, _InputIterator, _OutputIterator,
1085:c:\program files\daisytoolchain\arm-none-eabi\include\c++\10.2.1\bits\stl_algo.h ****    *              _BinaryPredicate)
1086:c:\program files\daisytoolchain\arm-none-eabi\include\c++\10.2.1\bits\stl_algo.h ****    *  overloaded for input iterators and forward iterator as result.
1087:c:\program files\daisytoolchain\arm-none-eabi\include\c++\10.2.1\bits\stl_algo.h ****   */
1088:c:\program files\daisytoolchain\arm-none-eabi\include\c++\10.2.1\bits\stl_algo.h ****   template<typename _InputIterator, typename _ForwardIterator,
1089:c:\program files\daisytoolchain\arm-none-eabi\include\c++\10.2.1\bits\stl_algo.h **** 	   typename _BinaryPredicate>
1090:c:\program files\daisytoolchain\arm-none-eabi\include\c++\10.2.1\bits\stl_algo.h ****     _GLIBCXX20_CONSTEXPR
1091:c:\program files\daisytoolchain\arm-none-eabi\include\c++\10.2.1\bits\stl_algo.h ****     _ForwardIterator
1092:c:\program files\daisytoolchain\arm-none-eabi\include\c++\10.2.1\bits\stl_algo.h ****     __unique_copy(_InputIterator __first, _InputIterator __last,
1093:c:\program files\daisytoolchain\arm-none-eabi\include\c++\10.2.1\bits\stl_algo.h **** 		  _ForwardIterator __result, _BinaryPredicate __binary_pred,
1094:c:\program files\daisytoolchain\arm-none-eabi\include\c++\10.2.1\bits\stl_algo.h **** 		  input_iterator_tag, forward_iterator_tag)
1095:c:\program files\daisytoolchain\arm-none-eabi\include\c++\10.2.1\bits\stl_algo.h ****     {
1096:c:\program files\daisytoolchain\arm-none-eabi\include\c++\10.2.1\bits\stl_algo.h ****       // concept requirements -- iterators already checked
1097:c:\program files\daisytoolchain\arm-none-eabi\include\c++\10.2.1\bits\stl_algo.h ****       __glibcxx_function_requires(_BinaryPredicateConcept<_BinaryPredicate,
1098:c:\program files\daisytoolchain\arm-none-eabi\include\c++\10.2.1\bits\stl_algo.h **** 	  typename iterator_traits<_ForwardIterator>::value_type,
1099:c:\program files\daisytoolchain\arm-none-eabi\include\c++\10.2.1\bits\stl_algo.h **** 	  typename iterator_traits<_InputIterator>::value_type>)
1100:c:\program files\daisytoolchain\arm-none-eabi\include\c++\10.2.1\bits\stl_algo.h ****       *__result = *__first;
1101:c:\program files\daisytoolchain\arm-none-eabi\include\c++\10.2.1\bits\stl_algo.h ****       while (++__first != __last)
1102:c:\program files\daisytoolchain\arm-none-eabi\include\c++\10.2.1\bits\stl_algo.h **** 	if (!__binary_pred(__result, __first))
1103:c:\program files\daisytoolchain\arm-none-eabi\include\c++\10.2.1\bits\stl_algo.h **** 	  *++__result = *__first;
1104:c:\program files\daisytoolchain\arm-none-eabi\include\c++\10.2.1\bits\stl_algo.h ****       return ++__result;
1105:c:\program files\daisytoolchain\arm-none-eabi\include\c++\10.2.1\bits\stl_algo.h ****     }
1106:c:\program files\daisytoolchain\arm-none-eabi\include\c++\10.2.1\bits\stl_algo.h **** 
1107:c:\program files\daisytoolchain\arm-none-eabi\include\c++\10.2.1\bits\stl_algo.h ****   /**
1108:c:\program files\daisytoolchain\arm-none-eabi\include\c++\10.2.1\bits\stl_algo.h ****    *  This is an uglified reverse(_BidirectionalIterator,
1109:c:\program files\daisytoolchain\arm-none-eabi\include\c++\10.2.1\bits\stl_algo.h ****    *                              _BidirectionalIterator)
1110:c:\program files\daisytoolchain\arm-none-eabi\include\c++\10.2.1\bits\stl_algo.h ****    *  overloaded for bidirectional iterators.
1111:c:\program files\daisytoolchain\arm-none-eabi\include\c++\10.2.1\bits\stl_algo.h ****   */
1112:c:\program files\daisytoolchain\arm-none-eabi\include\c++\10.2.1\bits\stl_algo.h ****   template<typename _BidirectionalIterator>
1113:c:\program files\daisytoolchain\arm-none-eabi\include\c++\10.2.1\bits\stl_algo.h ****     _GLIBCXX20_CONSTEXPR
1114:c:\program files\daisytoolchain\arm-none-eabi\include\c++\10.2.1\bits\stl_algo.h ****     void
1115:c:\program files\daisytoolchain\arm-none-eabi\include\c++\10.2.1\bits\stl_algo.h ****     __reverse(_BidirectionalIterator __first, _BidirectionalIterator __last,
1116:c:\program files\daisytoolchain\arm-none-eabi\include\c++\10.2.1\bits\stl_algo.h **** 	      bidirectional_iterator_tag)
1117:c:\program files\daisytoolchain\arm-none-eabi\include\c++\10.2.1\bits\stl_algo.h ****     {
1118:c:\program files\daisytoolchain\arm-none-eabi\include\c++\10.2.1\bits\stl_algo.h ****       while (true)
1119:c:\program files\daisytoolchain\arm-none-eabi\include\c++\10.2.1\bits\stl_algo.h **** 	if (__first == __last || __first == --__last)
1120:c:\program files\daisytoolchain\arm-none-eabi\include\c++\10.2.1\bits\stl_algo.h **** 	  return;
1121:c:\program files\daisytoolchain\arm-none-eabi\include\c++\10.2.1\bits\stl_algo.h **** 	else
1122:c:\program files\daisytoolchain\arm-none-eabi\include\c++\10.2.1\bits\stl_algo.h **** 	  {
1123:c:\program files\daisytoolchain\arm-none-eabi\include\c++\10.2.1\bits\stl_algo.h **** 	    std::iter_swap(__first, __last);
1124:c:\program files\daisytoolchain\arm-none-eabi\include\c++\10.2.1\bits\stl_algo.h **** 	    ++__first;
1125:c:\program files\daisytoolchain\arm-none-eabi\include\c++\10.2.1\bits\stl_algo.h **** 	  }
1126:c:\program files\daisytoolchain\arm-none-eabi\include\c++\10.2.1\bits\stl_algo.h ****     }
1127:c:\program files\daisytoolchain\arm-none-eabi\include\c++\10.2.1\bits\stl_algo.h **** 
1128:c:\program files\daisytoolchain\arm-none-eabi\include\c++\10.2.1\bits\stl_algo.h ****   /**
1129:c:\program files\daisytoolchain\arm-none-eabi\include\c++\10.2.1\bits\stl_algo.h ****    *  This is an uglified reverse(_BidirectionalIterator,
1130:c:\program files\daisytoolchain\arm-none-eabi\include\c++\10.2.1\bits\stl_algo.h ****    *                              _BidirectionalIterator)
1131:c:\program files\daisytoolchain\arm-none-eabi\include\c++\10.2.1\bits\stl_algo.h ****    *  overloaded for random access iterators.
1132:c:\program files\daisytoolchain\arm-none-eabi\include\c++\10.2.1\bits\stl_algo.h ****   */
1133:c:\program files\daisytoolchain\arm-none-eabi\include\c++\10.2.1\bits\stl_algo.h ****   template<typename _RandomAccessIterator>
ARM GAS  C:\Users\digit\AppData\Local\Temp\ccMK4Fcw.s 			page 58


1134:c:\program files\daisytoolchain\arm-none-eabi\include\c++\10.2.1\bits\stl_algo.h ****     _GLIBCXX20_CONSTEXPR
1135:c:\program files\daisytoolchain\arm-none-eabi\include\c++\10.2.1\bits\stl_algo.h ****     void
1136:c:\program files\daisytoolchain\arm-none-eabi\include\c++\10.2.1\bits\stl_algo.h ****     __reverse(_RandomAccessIterator __first, _RandomAccessIterator __last,
1137:c:\program files\daisytoolchain\arm-none-eabi\include\c++\10.2.1\bits\stl_algo.h **** 	      random_access_iterator_tag)
1138:c:\program files\daisytoolchain\arm-none-eabi\include\c++\10.2.1\bits\stl_algo.h ****     {
1139:c:\program files\daisytoolchain\arm-none-eabi\include\c++\10.2.1\bits\stl_algo.h ****       if (__first == __last)
1140:c:\program files\daisytoolchain\arm-none-eabi\include\c++\10.2.1\bits\stl_algo.h **** 	return;
1141:c:\program files\daisytoolchain\arm-none-eabi\include\c++\10.2.1\bits\stl_algo.h ****       --__last;
1142:c:\program files\daisytoolchain\arm-none-eabi\include\c++\10.2.1\bits\stl_algo.h ****       while (__first < __last)
1143:c:\program files\daisytoolchain\arm-none-eabi\include\c++\10.2.1\bits\stl_algo.h **** 	{
1144:c:\program files\daisytoolchain\arm-none-eabi\include\c++\10.2.1\bits\stl_algo.h **** 	  std::iter_swap(__first, __last);
1145:c:\program files\daisytoolchain\arm-none-eabi\include\c++\10.2.1\bits\stl_algo.h **** 	  ++__first;
1146:c:\program files\daisytoolchain\arm-none-eabi\include\c++\10.2.1\bits\stl_algo.h **** 	  --__last;
1147:c:\program files\daisytoolchain\arm-none-eabi\include\c++\10.2.1\bits\stl_algo.h **** 	}
