ARM GAS  C:\Users\digit\AppData\Local\Temp\ccV9ljMH.s 			page 1


   1              		.cpu cortex-m7
   2              		.eabi_attribute 28, 1
   3              		.eabi_attribute 20, 1
   4              		.eabi_attribute 21, 1
   5              		.eabi_attribute 23, 3
   6              		.eabi_attribute 24, 1
   7              		.eabi_attribute 25, 1
   8              		.eabi_attribute 26, 1
   9              		.eabi_attribute 30, 2
  10              		.eabi_attribute 34, 1
  11              		.eabi_attribute 18, 4
  12              		.file	"OnePoleFilters.cpp"
  13              		.text
  14              	.Ltext0:
  15              		.cfi_sections	.debug_frame
  16              		.section	.text._ZN15OnePoleLPFilterC2Eff,"ax",%progbits
  17              		.align	1
  18              		.p2align 2,,3
  19              		.global	_ZN15OnePoleLPFilterC2Eff
  20              		.arch armv7e-m
  21              		.syntax unified
  22              		.thumb
  23              		.thumb_func
  24              		.fpu fpv5-d16
  26              	_ZN15OnePoleLPFilterC2Eff:
  27              	.LVL0:
  28              	.LFB545:
  29              		.file 1 "dsp/filters/OnePoleFilters.cpp"
   1:dsp/filters/OnePoleFilters.cpp **** #include "OnePoleFilters.hpp"
   2:dsp/filters/OnePoleFilters.cpp **** 
   3:dsp/filters/OnePoleFilters.cpp **** OnePoleLPFilter::OnePoleLPFilter(float cutoffFreq, float initSampleRate) {
  30              		.loc 1 3 1 view -0
  31              		.cfi_startproc
  32              		@ args = 0, pretend = 0, frame = 0
  33              		@ frame_needed = 0, uses_anonymous_args = 0
  34              		.loc 1 3 1 is_stmt 0 view .LVU1
  35 0000 10B5     		push	{r4, lr}
  36              		.cfi_def_cfa_offset 8
  37              		.cfi_offset 4, -8
  38              		.cfi_offset 14, -4
  39 0002 2DED028B 		vpush.64	{d8}
  40              		.cfi_def_cfa_offset 16
  41              		.cfi_offset 80, -16
  42              		.cfi_offset 81, -12
  43              	.LBB47:
  44              	.LBB48:
  45              	.LBB49:
   4:dsp/filters/OnePoleFilters.cpp ****     setSampleRate(initSampleRate);
   5:dsp/filters/OnePoleFilters.cpp ****     setCutoffFreq(cutoffFreq);
   6:dsp/filters/OnePoleFilters.cpp **** }
   7:dsp/filters/OnePoleFilters.cpp **** 
   8:dsp/filters/OnePoleFilters.cpp **** float OnePoleLPFilter::process() {
   9:dsp/filters/OnePoleFilters.cpp ****     _z =  _a * input + _z * _b;
  10:dsp/filters/OnePoleFilters.cpp ****     output = _z;
  11:dsp/filters/OnePoleFilters.cpp ****     return output;
  12:dsp/filters/OnePoleFilters.cpp **** }
  13:dsp/filters/OnePoleFilters.cpp **** 
ARM GAS  C:\Users\digit\AppData\Local\Temp\ccV9ljMH.s 			page 2


  14:dsp/filters/OnePoleFilters.cpp **** void OnePoleLPFilter::clear() {
  15:dsp/filters/OnePoleFilters.cpp ****     input = 0.0;
  16:dsp/filters/OnePoleFilters.cpp ****     _z = 0.0;
  17:dsp/filters/OnePoleFilters.cpp ****     output = 0.0;
  18:dsp/filters/OnePoleFilters.cpp **** }
  19:dsp/filters/OnePoleFilters.cpp **** 
  20:dsp/filters/OnePoleFilters.cpp **** void OnePoleLPFilter::setSampleRate(float sampleRate) {
  21:dsp/filters/OnePoleFilters.cpp ****     _sampleRate = sampleRate;
  22:dsp/filters/OnePoleFilters.cpp ****     _1_sampleRate = 1.0 / sampleRate;
  46              		.loc 1 22 25 view .LVU2
  47 0006 B7EE008A 		vmov.f32	s16, #1.0e+0
  48              	.LBE49:
  49              	.LBE48:
   3:dsp/filters/OnePoleFilters.cpp ****     setSampleRate(initSampleRate);
  50              		.loc 1 3 72 view .LVU3
  51 000a 0023     		movs	r3, #0
  52              	.LBB56:
  53              	.LBB50:
  23:dsp/filters/OnePoleFilters.cpp ****     _maxCutoffFreq = sampleRate / 2.0 - 1.0;
  54              		.loc 1 23 39 view .LVU4
  55 000c B6EE005B 		vmov.f64	d5, #5.0e-1
  56              	.LBE50:
  57              	.LBE56:
  58              	.LBE47:
   3:dsp/filters/OnePoleFilters.cpp ****     setSampleRate(initSampleRate);
  59              		.loc 1 3 1 view .LVU5
  60 0010 0446     		mov	r4, r0
  61              	.LBB70:
  62              	.LBB57:
  63              	.LBB51:
  64              		.loc 1 23 39 view .LVU6
  65 0012 BFEE007B 		vmov.f64	d7, #-1.0e+0
  66              	.LBE51:
  67              	.LBE57:
   3:dsp/filters/OnePoleFilters.cpp ****     setSampleRate(initSampleRate);
  68              		.loc 1 3 72 view .LVU7
  69 0016 0360     		str	r3, [r0]	@ float
  70              	.LBB58:
  71              	.LBB52:
  22:dsp/filters/OnePoleFilters.cpp ****     _maxCutoffFreq = sampleRate / 2.0 - 1.0;
  72              		.loc 1 22 25 view .LVU8
  73 0018 C8EE206A 		vdiv.f32	s13, s16, s1
  74              	.LBE52:
  75              	.LBE58:
   3:dsp/filters/OnePoleFilters.cpp ****     setSampleRate(initSampleRate);
  76              		.loc 1 3 72 view .LVU9
  77 001c 4360     		str	r3, [r0, #4]	@ float
  78 001e 0361     		str	r3, [r0, #16]	@ float
  79 0020 8361     		str	r3, [r0, #24]	@ float
  80 0022 C361     		str	r3, [r0, #28]	@ float
  81 0024 0362     		str	r3, [r0, #32]	@ float
   4:dsp/filters/OnePoleFilters.cpp ****     setCutoffFreq(cutoffFreq);
  82              		.loc 1 4 5 is_stmt 1 view .LVU10
  83              	.LVL1:
  84              	.LBB59:
  85              	.LBI48:
  20:dsp/filters/OnePoleFilters.cpp ****     _sampleRate = sampleRate;
ARM GAS  C:\Users\digit\AppData\Local\Temp\ccV9ljMH.s 			page 3


  86              		.loc 1 20 6 view .LVU11
  87              	.LBB53:
  21:dsp/filters/OnePoleFilters.cpp ****     _1_sampleRate = 1.0 / sampleRate;
  88              		.loc 1 21 5 view .LVU12
  89              		.loc 1 23 22 is_stmt 0 view .LVU13
  90 0026 B7EEE04A 		vcvt.f64.f32	d4, s1
  21:dsp/filters/OnePoleFilters.cpp ****     _1_sampleRate = 1.0 / sampleRate;
  91              		.loc 1 21 17 view .LVU14
  92 002a C0ED020A 		vstr.32	s1, [r0, #8]
  22:dsp/filters/OnePoleFilters.cpp ****     _maxCutoffFreq = sampleRate / 2.0 - 1.0;
  93              		.loc 1 22 5 is_stmt 1 view .LVU15
  94              	.LBE53:
  95              	.LBE59:
  96              	.LBB60:
  97              	.LBB61:
  24:dsp/filters/OnePoleFilters.cpp ****     setCutoffFreq(_cutoffFreq);
  25:dsp/filters/OnePoleFilters.cpp **** }
  26:dsp/filters/OnePoleFilters.cpp **** 
  27:dsp/filters/OnePoleFilters.cpp **** void OnePoleLPFilter::setCutoffFreq(float cutoffFreq) {
  28:dsp/filters/OnePoleFilters.cpp ****     if (cutoffFreq == _cutoffFreq) {
  98              		.loc 1 28 5 is_stmt 0 view .LVU16
  99 002e B5EE400A 		vcmp.f32	s0, #0
 100              	.LBE61:
 101              	.LBE60:
 102              	.LBB66:
 103              	.LBB54:
  23:dsp/filters/OnePoleFilters.cpp ****     setCutoffFreq(_cutoffFreq);
 104              		.loc 1 23 39 view .LVU17
 105 0032 A4EE057B 		vfma.f64	d7, d4, d5
 106              	.LBE54:
 107              	.LBE66:
 108              	.LBB67:
 109              	.LBB64:
 110              		.loc 1 28 5 view .LVU18
 111 0036 F1EE10FA 		vmrs	APSR_nzcv, FPSCR
 112              	.LBE64:
 113              	.LBE67:
 114              	.LBB68:
 115              	.LBB55:
  22:dsp/filters/OnePoleFilters.cpp ****     _maxCutoffFreq = sampleRate / 2.0 - 1.0;
 116              		.loc 1 22 19 view .LVU19
 117 003a C0ED036A 		vstr.32	s13, [r0, #12]
  23:dsp/filters/OnePoleFilters.cpp ****     setCutoffFreq(_cutoffFreq);
 118              		.loc 1 23 5 is_stmt 1 view .LVU20
  23:dsp/filters/OnePoleFilters.cpp ****     setCutoffFreq(_cutoffFreq);
 119              		.loc 1 23 39 is_stmt 0 view .LVU21
 120 003e B7EEC77B 		vcvt.f32.f64	s14, d7
 121 0042 80ED057A 		vstr.32	s14, [r0, #20]
  24:dsp/filters/OnePoleFilters.cpp ****     setCutoffFreq(_cutoffFreq);
 122              		.loc 1 24 5 is_stmt 1 view .LVU22
 123              	.LVL2:
  24:dsp/filters/OnePoleFilters.cpp ****     setCutoffFreq(_cutoffFreq);
 124              		.loc 1 24 5 is_stmt 0 view .LVU23
 125              	.LBE55:
 126              	.LBE68:
 127              	.LBE70:
 128              		.loc 1 28 5 is_stmt 1 view .LVU24
ARM GAS  C:\Users\digit\AppData\Local\Temp\ccV9ljMH.s 			page 4


 129              	.LBB71:
   5:dsp/filters/OnePoleFilters.cpp **** }
 130              		.loc 1 5 5 view .LVU25
 131              	.LBB69:
 132              	.LBI60:
  27:dsp/filters/OnePoleFilters.cpp ****     if (cutoffFreq == _cutoffFreq) {
 133              		.loc 1 27 6 view .LVU26
 134              	.LBB65:
 135              		.loc 1 28 5 view .LVU27
 136 0046 15D0     		beq	.L2
 137              	.LVL3:
 138              	.LBB62:
 139              	.LBI62:
  27:dsp/filters/OnePoleFilters.cpp ****     if (cutoffFreq == _cutoffFreq) {
 140              		.loc 1 27 6 view .LVU28
 141              	.LBB63:
  29:dsp/filters/OnePoleFilters.cpp ****         return;
  30:dsp/filters/OnePoleFilters.cpp ****     }
  31:dsp/filters/OnePoleFilters.cpp **** 
  32:dsp/filters/OnePoleFilters.cpp ****     _cutoffFreq = cutoffFreq;
 142              		.loc 1 32 5 view .LVU29
  33:dsp/filters/OnePoleFilters.cpp ****     _b = expf(-_2M_PI * _cutoffFreq * _1_sampleRate);
 143              		.loc 1 33 25 is_stmt 0 view .LVU30
 144 0048 B7EEC05A 		vcvt.f64.f32	d5, s0
  32:dsp/filters/OnePoleFilters.cpp ****     _b = expf(-_2M_PI * _cutoffFreq * _1_sampleRate);
 145              		.loc 1 32 17 view .LVU31
 146 004c 80ED040A 		vstr.32	s0, [r0, #16]
 147              		.loc 1 33 5 is_stmt 1 view .LVU32
 148              		.loc 1 33 39 is_stmt 0 view .LVU33
 149 0050 B7EEE67A 		vcvt.f64.f32	d7, s13
 150              		.loc 1 33 23 view .LVU34
 151 0054 9FED0A4B 		vldr.64	d4, .L5
 152 0058 25EE040B 		vmul.f64	d0, d5, d4
 153              	.LVL4:
 154              		.loc 1 33 37 view .LVU35
 155 005c 20EE070B 		vmul.f64	d0, d0, d7
 156              		.loc 1 33 14 view .LVU36
 157 0060 B7EEC00B 		vcvt.f32.f64	s0, d0
 158 0064 FFF7FEFF 		bl	expf
 159              	.LVL5:
  34:dsp/filters/OnePoleFilters.cpp ****     _a = 1.0 - _b;
 160              		.loc 1 34 14 view .LVU37
 161 0068 38EE408A 		vsub.f32	s16, s16, s0
  33:dsp/filters/OnePoleFilters.cpp ****     _b = expf(-_2M_PI * _cutoffFreq * _1_sampleRate);
 162              		.loc 1 33 8 view .LVU38
 163 006c 84ED070A 		vstr.32	s0, [r4, #28]
 164              		.loc 1 34 5 is_stmt 1 view .LVU39
 165              		.loc 1 34 8 is_stmt 0 view .LVU40
 166 0070 84ED068A 		vstr.32	s16, [r4, #24]
 167              	.LVL6:
 168              	.L2:
 169              		.loc 1 34 8 view .LVU41
 170              	.LBE63:
 171              	.LBE62:
 172              	.LBE65:
 173              	.LBE69:
 174              	.LBE71:
ARM GAS  C:\Users\digit\AppData\Local\Temp\ccV9ljMH.s 			page 5


   6:dsp/filters/OnePoleFilters.cpp **** 
 175              		.loc 1 6 1 view .LVU42
 176 0074 2046     		mov	r0, r4
 177 0076 BDEC028B 		vldm	sp!, {d8}
 178              		.cfi_restore 80
 179              		.cfi_restore 81
 180              		.cfi_def_cfa_offset 8
 181 007a 10BD     		pop	{r4, pc}
 182              	.LVL7:
 183              	.L6:
   6:dsp/filters/OnePoleFilters.cpp **** 
 184              		.loc 1 6 1 view .LVU43
 185 007c AFF30080 		.align	3
 186              	.L5:
 187 0080 182D4454 		.word	1413754136
 188 0084 FB2119C0 		.word	-1072094725
 189              		.cfi_endproc
 190              	.LFE545:
 192              		.global	_ZN15OnePoleLPFilterC1Eff
 193              		.thumb_set _ZN15OnePoleLPFilterC1Eff,_ZN15OnePoleLPFilterC2Eff
 194              		.section	.text._ZN15OnePoleLPFilter7processEv,"ax",%progbits
 195              		.align	1
 196              		.p2align 2,,3
 197              		.global	_ZN15OnePoleLPFilter7processEv
 198              		.syntax unified
 199              		.thumb
 200              		.thumb_func
 201              		.fpu fpv5-d16
 203              	_ZN15OnePoleLPFilter7processEv:
 204              	.LVL8:
 205              	.LFB547:
   8:dsp/filters/OnePoleFilters.cpp ****     _z =  _a * input + _z * _b;
 206              		.loc 1 8 34 is_stmt 1 view -0
 207              		.cfi_startproc
 208              		@ args = 0, pretend = 0, frame = 0
 209              		@ frame_needed = 0, uses_anonymous_args = 0
 210              		@ link register save eliminated.
   9:dsp/filters/OnePoleFilters.cpp ****     output = _z;
 211              		.loc 1 9 5 view .LVU45
   9:dsp/filters/OnePoleFilters.cpp ****     output = _z;
 212              		.loc 1 9 27 is_stmt 0 view .LVU46
 213 0000 90ED080A 		vldr.32	s0, [r0, #32]
 214 0004 D0ED076A 		vldr.32	s13, [r0, #28]
   9:dsp/filters/OnePoleFilters.cpp ****     output = _z;
 215              		.loc 1 9 22 view .LVU47
 216 0008 90ED067A 		vldr.32	s14, [r0, #24]
   9:dsp/filters/OnePoleFilters.cpp ****     output = _z;
 217              		.loc 1 9 27 view .LVU48
 218 000c 20EE260A 		vmul.f32	s0, s0, s13
   9:dsp/filters/OnePoleFilters.cpp ****     output = _z;
 219              		.loc 1 9 22 view .LVU49
 220 0010 D0ED007A 		vldr.32	s15, [r0]
 221 0014 A7EE270A 		vfma.f32	s0, s14, s15
   9:dsp/filters/OnePoleFilters.cpp ****     output = _z;
 222              		.loc 1 9 8 view .LVU50
 223 0018 80ED080A 		vstr.32	s0, [r0, #32]
  10:dsp/filters/OnePoleFilters.cpp ****     return output;
ARM GAS  C:\Users\digit\AppData\Local\Temp\ccV9ljMH.s 			page 6


 224              		.loc 1 10 5 is_stmt 1 view .LVU51
  10:dsp/filters/OnePoleFilters.cpp ****     return output;
 225              		.loc 1 10 12 is_stmt 0 view .LVU52
 226 001c 80ED010A 		vstr.32	s0, [r0, #4]
  11:dsp/filters/OnePoleFilters.cpp **** }
 227              		.loc 1 11 5 is_stmt 1 view .LVU53
  12:dsp/filters/OnePoleFilters.cpp **** 
 228              		.loc 1 12 1 is_stmt 0 view .LVU54
 229 0020 7047     		bx	lr
 230              		.cfi_endproc
 231              	.LFE547:
 233 0022 00BF     		.section	.text._ZN15OnePoleLPFilter5clearEv,"ax",%progbits
 234              		.align	1
 235              		.p2align 2,,3
 236              		.global	_ZN15OnePoleLPFilter5clearEv
 237              		.syntax unified
 238              		.thumb
 239              		.thumb_func
 240              		.fpu fpv5-d16
 242              	_ZN15OnePoleLPFilter5clearEv:
 243              	.LVL9:
 244              	.LFB548:
  14:dsp/filters/OnePoleFilters.cpp ****     input = 0.0;
 245              		.loc 1 14 31 is_stmt 1 view -0
 246              		.cfi_startproc
 247              		@ args = 0, pretend = 0, frame = 0
 248              		@ frame_needed = 0, uses_anonymous_args = 0
 249              		@ link register save eliminated.
  15:dsp/filters/OnePoleFilters.cpp ****     _z = 0.0;
 250              		.loc 1 15 5 view .LVU56
  15:dsp/filters/OnePoleFilters.cpp ****     _z = 0.0;
 251              		.loc 1 15 11 is_stmt 0 view .LVU57
 252 0000 0023     		movs	r3, #0
 253 0002 0360     		str	r3, [r0]	@ float
  16:dsp/filters/OnePoleFilters.cpp ****     output = 0.0;
 254              		.loc 1 16 5 is_stmt 1 view .LVU58
  16:dsp/filters/OnePoleFilters.cpp ****     output = 0.0;
 255              		.loc 1 16 8 is_stmt 0 view .LVU59
 256 0004 0362     		str	r3, [r0, #32]	@ float
  17:dsp/filters/OnePoleFilters.cpp **** }
 257              		.loc 1 17 5 is_stmt 1 view .LVU60
  17:dsp/filters/OnePoleFilters.cpp **** }
 258              		.loc 1 17 12 is_stmt 0 view .LVU61
 259 0006 4360     		str	r3, [r0, #4]	@ float
  18:dsp/filters/OnePoleFilters.cpp **** 
 260              		.loc 1 18 1 view .LVU62
 261 0008 7047     		bx	lr
 262              		.cfi_endproc
 263              	.LFE548:
 265 000a 00BF     		.section	.text._ZN15OnePoleLPFilter13setSampleRateEf,"ax",%progbits
 266              		.align	1
 267              		.p2align 2,,3
 268              		.global	_ZN15OnePoleLPFilter13setSampleRateEf
 269              		.syntax unified
 270              		.thumb
 271              		.thumb_func
 272              		.fpu fpv5-d16
ARM GAS  C:\Users\digit\AppData\Local\Temp\ccV9ljMH.s 			page 7


 274              	_ZN15OnePoleLPFilter13setSampleRateEf:
 275              	.LVL10:
 276              	.LFB549:
  20:dsp/filters/OnePoleFilters.cpp ****     _sampleRate = sampleRate;
 277              		.loc 1 20 55 is_stmt 1 view -0
 278              		.cfi_startproc
 279              		@ args = 0, pretend = 0, frame = 0
 280              		@ frame_needed = 0, uses_anonymous_args = 0
  21:dsp/filters/OnePoleFilters.cpp ****     _1_sampleRate = 1.0 / sampleRate;
 281              		.loc 1 21 5 view .LVU64
  20:dsp/filters/OnePoleFilters.cpp ****     _sampleRate = sampleRate;
 282              		.loc 1 20 55 is_stmt 0 view .LVU65
 283 0000 10B5     		push	{r4, lr}
 284              		.cfi_def_cfa_offset 8
 285              		.cfi_offset 4, -8
 286              		.cfi_offset 14, -4
 287 0002 2DED028B 		vpush.64	{d8}
 288              		.cfi_def_cfa_offset 16
 289              		.cfi_offset 80, -16
 290              		.cfi_offset 81, -12
  22:dsp/filters/OnePoleFilters.cpp ****     _maxCutoffFreq = sampleRate / 2.0 - 1.0;
 291              		.loc 1 22 25 view .LVU66
 292 0006 B7EE008A 		vmov.f32	s16, #1.0e+0
  24:dsp/filters/OnePoleFilters.cpp **** }
 293              		.loc 1 24 18 view .LVU67
 294 000a D0ED047A 		vldr.32	s15, [r0, #16]
  23:dsp/filters/OnePoleFilters.cpp ****     setCutoffFreq(_cutoffFreq);
 295              		.loc 1 23 39 view .LVU68
 296 000e B6EE004B 		vmov.f64	d4, #5.0e-1
  21:dsp/filters/OnePoleFilters.cpp ****     _1_sampleRate = 1.0 / sampleRate;
 297              		.loc 1 21 17 view .LVU69
 298 0012 80ED020A 		vstr.32	s0, [r0, #8]
  23:dsp/filters/OnePoleFilters.cpp ****     setCutoffFreq(_cutoffFreq);
 299              		.loc 1 23 39 view .LVU70
 300 0016 BFEE006B 		vmov.f64	d6, #-1.0e+0
  22:dsp/filters/OnePoleFilters.cpp ****     _maxCutoffFreq = sampleRate / 2.0 - 1.0;
 301              		.loc 1 22 25 view .LVU71
 302 001a C8EE005A 		vdiv.f32	s11, s16, s0
  23:dsp/filters/OnePoleFilters.cpp ****     setCutoffFreq(_cutoffFreq);
 303              		.loc 1 23 22 view .LVU72
 304 001e B7EEC03A 		vcvt.f64.f32	d3, s0
  22:dsp/filters/OnePoleFilters.cpp ****     _maxCutoffFreq = sampleRate / 2.0 - 1.0;
 305              		.loc 1 22 5 is_stmt 1 view .LVU73
 306              	.LBB76:
 307              	.LBB77:
  28:dsp/filters/OnePoleFilters.cpp ****         return;
 308              		.loc 1 28 5 is_stmt 0 view .LVU74
 309 0022 F4EE677A 		vcmp.f32	s15, s15
 310              	.LBE77:
 311              	.LBE76:
  23:dsp/filters/OnePoleFilters.cpp ****     setCutoffFreq(_cutoffFreq);
 312              		.loc 1 23 39 view .LVU75
 313 0026 A3EE046B 		vfma.f64	d6, d3, d4
 314              	.LBB83:
 315              	.LBB81:
  28:dsp/filters/OnePoleFilters.cpp ****         return;
 316              		.loc 1 28 5 view .LVU76
ARM GAS  C:\Users\digit\AppData\Local\Temp\ccV9ljMH.s 			page 8


 317 002a F1EE10FA 		vmrs	APSR_nzcv, FPSCR
 318              	.LBE81:
 319              	.LBE83:
  22:dsp/filters/OnePoleFilters.cpp ****     _maxCutoffFreq = sampleRate / 2.0 - 1.0;
 320              		.loc 1 22 19 view .LVU77
 321 002e C0ED035A 		vstr.32	s11, [r0, #12]
  23:dsp/filters/OnePoleFilters.cpp ****     setCutoffFreq(_cutoffFreq);
 322              		.loc 1 23 5 is_stmt 1 view .LVU78
  23:dsp/filters/OnePoleFilters.cpp ****     setCutoffFreq(_cutoffFreq);
 323              		.loc 1 23 39 is_stmt 0 view .LVU79
 324 0032 B7EEC67B 		vcvt.f32.f64	s14, d6
 325 0036 80ED057A 		vstr.32	s14, [r0, #20]
  24:dsp/filters/OnePoleFilters.cpp **** }
 326              		.loc 1 24 5 is_stmt 1 view .LVU80
 327              	.LVL11:
 328              	.LBB84:
 329              	.LBI76:
  27:dsp/filters/OnePoleFilters.cpp ****     if (cutoffFreq == _cutoffFreq) {
 330              		.loc 1 27 6 view .LVU81
 331              	.LBB82:
  28:dsp/filters/OnePoleFilters.cpp ****         return;
 332              		.loc 1 28 5 view .LVU82
 333 003a 14D0     		beq	.L9
 334              	.LBB78:
 335              	.LBB79:
  33:dsp/filters/OnePoleFilters.cpp ****     _a = 1.0 - _b;
 336              		.loc 1 33 25 is_stmt 0 view .LVU83
 337 003c B7EEE70A 		vcvt.f64.f32	d0, s15
 338              	.LVL12:
  33:dsp/filters/OnePoleFilters.cpp ****     _a = 1.0 - _b;
 339              		.loc 1 33 25 view .LVU84
 340 0040 0446     		mov	r4, r0
 341              	.LVL13:
  33:dsp/filters/OnePoleFilters.cpp ****     _a = 1.0 - _b;
 342              		.loc 1 33 25 view .LVU85
 343              	.LBE79:
 344              	.LBI78:
  27:dsp/filters/OnePoleFilters.cpp ****     if (cutoffFreq == _cutoffFreq) {
 345              		.loc 1 27 6 is_stmt 1 view .LVU86
 346              	.LBB80:
  32:dsp/filters/OnePoleFilters.cpp ****     _b = expf(-_2M_PI * _cutoffFreq * _1_sampleRate);
 347              		.loc 1 32 5 view .LVU87
  33:dsp/filters/OnePoleFilters.cpp ****     _a = 1.0 - _b;
 348              		.loc 1 33 5 view .LVU88
  33:dsp/filters/OnePoleFilters.cpp ****     _a = 1.0 - _b;
 349              		.loc 1 33 39 is_stmt 0 view .LVU89
 350 0042 B7EEE57A 		vcvt.f64.f32	d7, s11
  33:dsp/filters/OnePoleFilters.cpp ****     _a = 1.0 - _b;
 351              		.loc 1 33 23 view .LVU90
 352 0046 9FED0A6B 		vldr.64	d6, .L12
 353 004a 20EE060B 		vmul.f64	d0, d0, d6
  33:dsp/filters/OnePoleFilters.cpp ****     _a = 1.0 - _b;
 354              		.loc 1 33 37 view .LVU91
 355 004e 20EE070B 		vmul.f64	d0, d0, d7
  33:dsp/filters/OnePoleFilters.cpp ****     _a = 1.0 - _b;
 356              		.loc 1 33 14 view .LVU92
 357 0052 B7EEC00B 		vcvt.f32.f64	s0, d0
ARM GAS  C:\Users\digit\AppData\Local\Temp\ccV9ljMH.s 			page 9


 358 0056 FFF7FEFF 		bl	expf
 359              	.LVL14:
 360              		.loc 1 34 14 view .LVU93
 361 005a 38EE408A 		vsub.f32	s16, s16, s0
  33:dsp/filters/OnePoleFilters.cpp ****     _a = 1.0 - _b;
 362              		.loc 1 33 8 view .LVU94
 363 005e 84ED070A 		vstr.32	s0, [r4, #28]
 364              		.loc 1 34 5 is_stmt 1 view .LVU95
 365              		.loc 1 34 8 is_stmt 0 view .LVU96
 366 0062 84ED068A 		vstr.32	s16, [r4, #24]
 367              	.LVL15:
 368              	.L9:
 369              		.loc 1 34 8 view .LVU97
 370              	.LBE80:
 371              	.LBE78:
 372              	.LBE82:
 373              	.LBE84:
  25:dsp/filters/OnePoleFilters.cpp **** 
 374              		.loc 1 25 1 view .LVU98
 375 0066 BDEC028B 		vldm	sp!, {d8}
 376              		.cfi_restore 80
 377              		.cfi_restore 81
 378              		.cfi_def_cfa_offset 8
 379 006a 10BD     		pop	{r4, pc}
 380              	.L13:
 381 006c AFF30080 		.align	3
 382              	.L12:
 383 0070 182D4454 		.word	1413754136
 384 0074 FB2119C0 		.word	-1072094725
 385              		.cfi_endproc
 386              	.LFE549:
 388              		.section	.text._ZN15OnePoleLPFilter13setCutoffFreqEf,"ax",%progbits
 389              		.align	1
 390              		.p2align 2,,3
 391              		.global	_ZN15OnePoleLPFilter13setCutoffFreqEf
 392              		.syntax unified
 393              		.thumb
 394              		.thumb_func
 395              		.fpu fpv5-d16
 397              	_ZN15OnePoleLPFilter13setCutoffFreqEf:
 398              	.LVL16:
 399              	.LFB550:
  27:dsp/filters/OnePoleFilters.cpp ****     if (cutoffFreq == _cutoffFreq) {
 400              		.loc 1 27 55 is_stmt 1 view -0
 401              		.cfi_startproc
 402              		@ args = 0, pretend = 0, frame = 0
 403              		@ frame_needed = 0, uses_anonymous_args = 0
  28:dsp/filters/OnePoleFilters.cpp ****         return;
 404              		.loc 1 28 5 view .LVU100
 405 0000 D0ED047A 		vldr.32	s15, [r0, #16]
 406 0004 F4EE407A 		vcmp.f32	s15, s0
 407 0008 F1EE10FA 		vmrs	APSR_nzcv, FPSCR
 408 000c 00D1     		bne	.L20
 409 000e 7047     		bx	lr
 410              	.L20:
 411              	.LVL17:
 412              	.LBB87:
ARM GAS  C:\Users\digit\AppData\Local\Temp\ccV9ljMH.s 			page 10


 413              	.LBI87:
  27:dsp/filters/OnePoleFilters.cpp ****     if (cutoffFreq == _cutoffFreq) {
 414              		.loc 1 27 6 view .LVU101
 415              	.LBB88:
  32:dsp/filters/OnePoleFilters.cpp ****     _b = expf(-_2M_PI * _cutoffFreq * _1_sampleRate);
 416              		.loc 1 32 5 view .LVU102
  33:dsp/filters/OnePoleFilters.cpp ****     _a = 1.0 - _b;
 417              		.loc 1 33 25 is_stmt 0 view .LVU103
 418 0010 B7EEC07A 		vcvt.f64.f32	d7, s0
  32:dsp/filters/OnePoleFilters.cpp ****     _b = expf(-_2M_PI * _cutoffFreq * _1_sampleRate);
 419              		.loc 1 32 17 view .LVU104
 420 0014 80ED040A 		vstr.32	s0, [r0, #16]
  33:dsp/filters/OnePoleFilters.cpp ****     _a = 1.0 - _b;
 421              		.loc 1 33 5 is_stmt 1 view .LVU105
  33:dsp/filters/OnePoleFilters.cpp ****     _a = 1.0 - _b;
 422              		.loc 1 33 39 is_stmt 0 view .LVU106
 423 0018 D0ED036A 		vldr.32	s13, [r0, #12]
  33:dsp/filters/OnePoleFilters.cpp ****     _a = 1.0 - _b;
 424              		.loc 1 33 23 view .LVU107
 425 001c 9FED0C5B 		vldr.64	d5, .L21
 426              	.LBE88:
 427              	.LBE87:
  27:dsp/filters/OnePoleFilters.cpp ****     if (cutoffFreq == _cutoffFreq) {
 428              		.loc 1 27 55 view .LVU108
 429 0020 10B5     		push	{r4, lr}
 430              		.cfi_def_cfa_offset 8
 431              		.cfi_offset 4, -8
 432              		.cfi_offset 14, -4
 433              	.LBB90:
 434              	.LBB89:
  33:dsp/filters/OnePoleFilters.cpp ****     _a = 1.0 - _b;
 435              		.loc 1 33 23 view .LVU109
 436 0022 27EE050B 		vmul.f64	d0, d7, d5
 437              	.LVL18:
  33:dsp/filters/OnePoleFilters.cpp ****     _a = 1.0 - _b;
 438              		.loc 1 33 23 view .LVU110
 439 0026 0446     		mov	r4, r0
  33:dsp/filters/OnePoleFilters.cpp ****     _a = 1.0 - _b;
 440              		.loc 1 33 39 view .LVU111
 441 0028 B7EEE67A 		vcvt.f64.f32	d7, s13
  33:dsp/filters/OnePoleFilters.cpp ****     _a = 1.0 - _b;
 442              		.loc 1 33 37 view .LVU112
 443 002c 20EE070B 		vmul.f64	d0, d0, d7
  33:dsp/filters/OnePoleFilters.cpp ****     _a = 1.0 - _b;
 444              		.loc 1 33 14 view .LVU113
 445 0030 B7EEC00B 		vcvt.f32.f64	s0, d0
 446 0034 FFF7FEFF 		bl	expf
 447              	.LVL19:
 448              		.loc 1 34 14 view .LVU114
 449 0038 F7EE007A 		vmov.f32	s15, #1.0e+0
  33:dsp/filters/OnePoleFilters.cpp ****     _a = 1.0 - _b;
 450              		.loc 1 33 8 view .LVU115
 451 003c 84ED070A 		vstr.32	s0, [r4, #28]
 452              		.loc 1 34 5 is_stmt 1 view .LVU116
 453              		.loc 1 34 14 is_stmt 0 view .LVU117
 454 0040 77EEC07A 		vsub.f32	s15, s15, s0
 455              		.loc 1 34 8 view .LVU118
ARM GAS  C:\Users\digit\AppData\Local\Temp\ccV9ljMH.s 			page 11


 456 0044 C4ED067A 		vstr.32	s15, [r4, #24]
 457              	.LVL20:
 458              		.loc 1 34 8 view .LVU119
 459              	.LBE89:
 460              	.LBE90:
  35:dsp/filters/OnePoleFilters.cpp **** }
 461              		.loc 1 35 1 view .LVU120
 462 0048 10BD     		pop	{r4, pc}
 463              	.LVL21:
 464              	.L22:
 465              		.loc 1 35 1 view .LVU121
 466 004a 00BFAFF3 		.align	3
 466      0080
 467              	.L21:
 468 0050 182D4454 		.word	1413754136
 469 0054 FB2119C0 		.word	-1072094725
 470              		.cfi_endproc
 471              	.LFE550:
 473              		.section	.text._ZNK15OnePoleLPFilter16getMaxCutoffFreqEv,"ax",%progbits
 474              		.align	1
 475              		.p2align 2,,3
 476              		.global	_ZNK15OnePoleLPFilter16getMaxCutoffFreqEv
 477              		.syntax unified
 478              		.thumb
 479              		.thumb_func
 480              		.fpu fpv5-d16
 482              	_ZNK15OnePoleLPFilter16getMaxCutoffFreqEv:
 483              	.LVL22:
 484              	.LFB551:
  36:dsp/filters/OnePoleFilters.cpp **** 
  37:dsp/filters/OnePoleFilters.cpp **** float OnePoleLPFilter::getMaxCutoffFreq() const {
 485              		.loc 1 37 49 is_stmt 1 view -0
 486              		.cfi_startproc
 487              		@ args = 0, pretend = 0, frame = 0
 488              		@ frame_needed = 0, uses_anonymous_args = 0
 489              		@ link register save eliminated.
  38:dsp/filters/OnePoleFilters.cpp ****     return _maxCutoffFreq;
 490              		.loc 1 38 5 view .LVU123
  39:dsp/filters/OnePoleFilters.cpp **** }
 491              		.loc 1 39 1 is_stmt 0 view .LVU124
 492 0000 90ED050A 		vldr.32	s0, [r0, #20]
 493 0004 7047     		bx	lr
 494              		.cfi_endproc
 495              	.LFE551:
 497              		.section	.text._ZN15OnePoleHPFilterC2Eff,"ax",%progbits
 498              		.align	1
 499              		.p2align 2,,3
 500              		.global	_ZN15OnePoleHPFilterC2Eff
 501              		.syntax unified
 502              		.thumb
 503              		.thumb_func
 504              		.fpu fpv5-d16
 506              	_ZN15OnePoleHPFilterC2Eff:
 507              	.LVL23:
 508              	.LFB553:
  40:dsp/filters/OnePoleFilters.cpp **** 
  41:dsp/filters/OnePoleFilters.cpp **** //////////////////////////////////////////////////////////////////////////////////////////////////
ARM GAS  C:\Users\digit\AppData\Local\Temp\ccV9ljMH.s 			page 12


  42:dsp/filters/OnePoleFilters.cpp **** 
  43:dsp/filters/OnePoleFilters.cpp **** OnePoleHPFilter::OnePoleHPFilter(float initCutoffFreq, float initSampleRate) {
 509              		.loc 1 43 1 is_stmt 1 view -0
 510              		.cfi_startproc
 511              		@ args = 0, pretend = 0, frame = 0
 512              		@ frame_needed = 0, uses_anonymous_args = 0
 513              	.LBB106:
 514              	.LBB107:
 515              	.LBB108:
  44:dsp/filters/OnePoleFilters.cpp ****     setSampleRate(initSampleRate);
  45:dsp/filters/OnePoleFilters.cpp ****     setCutoffFreq(initCutoffFreq);
  46:dsp/filters/OnePoleFilters.cpp ****     clear();
  47:dsp/filters/OnePoleFilters.cpp **** }
  48:dsp/filters/OnePoleFilters.cpp **** 
  49:dsp/filters/OnePoleFilters.cpp **** float OnePoleHPFilter::process() {
  50:dsp/filters/OnePoleFilters.cpp ****     _x0 = input;
  51:dsp/filters/OnePoleFilters.cpp ****     _y0 = _a0 * _x0 + _a1 * _x1 + _b1 * _y1;
  52:dsp/filters/OnePoleFilters.cpp ****     _y1 = _y0;
  53:dsp/filters/OnePoleFilters.cpp ****     _x1 = _x0;
  54:dsp/filters/OnePoleFilters.cpp ****     output = _y0;
  55:dsp/filters/OnePoleFilters.cpp ****     return _y0;
  56:dsp/filters/OnePoleFilters.cpp **** }
  57:dsp/filters/OnePoleFilters.cpp **** 
  58:dsp/filters/OnePoleFilters.cpp **** void OnePoleHPFilter::clear() {
  59:dsp/filters/OnePoleFilters.cpp ****     input = 0.0;
  60:dsp/filters/OnePoleFilters.cpp ****     output = 0.0;
  61:dsp/filters/OnePoleFilters.cpp ****     _x0 = 0.0;
  62:dsp/filters/OnePoleFilters.cpp ****     _x1 = 0.0;
  63:dsp/filters/OnePoleFilters.cpp ****     _y0 = 0.0;
  64:dsp/filters/OnePoleFilters.cpp ****     _y1 = 0.0;
  65:dsp/filters/OnePoleFilters.cpp **** }
  66:dsp/filters/OnePoleFilters.cpp **** 
  67:dsp/filters/OnePoleFilters.cpp **** void OnePoleHPFilter::setCutoffFreq(float cutoffFreq) {
  68:dsp/filters/OnePoleFilters.cpp ****     if (cutoffFreq == _cutoffFreq) {
  69:dsp/filters/OnePoleFilters.cpp ****         return;
  70:dsp/filters/OnePoleFilters.cpp ****     }
  71:dsp/filters/OnePoleFilters.cpp ****     
  72:dsp/filters/OnePoleFilters.cpp ****     _cutoffFreq = cutoffFreq;
  73:dsp/filters/OnePoleFilters.cpp ****     _b1 = expf(-_2M_PI * _cutoffFreq * _1_sampleRate);
  74:dsp/filters/OnePoleFilters.cpp ****     _a0 = (1.0 + _b1) / 2.0;
  75:dsp/filters/OnePoleFilters.cpp ****     _a1 = -_a0;
  76:dsp/filters/OnePoleFilters.cpp **** }
  77:dsp/filters/OnePoleFilters.cpp **** 
  78:dsp/filters/OnePoleFilters.cpp **** void OnePoleHPFilter::setSampleRate(float sampleRate) {
  79:dsp/filters/OnePoleFilters.cpp ****     _sampleRate = sampleRate;
  80:dsp/filters/OnePoleFilters.cpp ****     _1_sampleRate = 1.0 / _sampleRate;
 516              		.loc 1 80 25 is_stmt 0 view .LVU126
 517 0000 F7EE006A 		vmov.f32	s13, #1.0e+0
 518              	.LBE108:
 519              	.LBE107:
  43:dsp/filters/OnePoleFilters.cpp ****     setSampleRate(initSampleRate);
 520              		.loc 1 43 76 view .LVU127
 521 0004 0023     		movs	r3, #0
 522              	.LBB114:
 523              	.LBB109:
  81:dsp/filters/OnePoleFilters.cpp ****     _maxCutoffFreq = sampleRate / 2.0 - 1.0;
 524              		.loc 1 81 39 view .LVU128
ARM GAS  C:\Users\digit\AppData\Local\Temp\ccV9ljMH.s 			page 13


 525 0006 BFEE007B 		vmov.f64	d7, #-1.0e+0
 526              		.loc 1 81 22 view .LVU129
 527 000a B7EEE05A 		vcvt.f64.f32	d5, s1
  80:dsp/filters/OnePoleFilters.cpp ****     _maxCutoffFreq = sampleRate / 2.0 - 1.0;
 528              		.loc 1 80 25 view .LVU130
 529 000e 86EEA06A 		vdiv.f32	s12, s13, s1
 530              	.LBE109:
 531              	.LBE114:
 532              	.LBB115:
 533              	.LBB116:
  68:dsp/filters/OnePoleFilters.cpp ****         return;
 534              		.loc 1 68 5 view .LVU131
 535 0012 B5EE400A 		vcmp.f32	s0, #0
 536              	.LBE116:
 537              	.LBE115:
 538              	.LBE106:
  43:dsp/filters/OnePoleFilters.cpp ****     setSampleRate(initSampleRate);
 539              		.loc 1 43 1 view .LVU132
 540 0016 10B5     		push	{r4, lr}
 541              		.cfi_def_cfa_offset 8
 542              		.cfi_offset 4, -8
 543              		.cfi_offset 14, -4
 544 0018 2DED028B 		vpush.64	{d8}
 545              		.cfi_def_cfa_offset 16
 546              		.cfi_offset 80, -16
 547              		.cfi_offset 81, -12
 548              	.LBB131:
 549              	.LBB121:
 550              	.LBB110:
 551              		.loc 1 81 39 view .LVU133
 552 001c B6EE008B 		vmov.f64	d8, #5.0e-1
 553              	.LBE110:
 554              	.LBE121:
 555              	.LBE131:
  43:dsp/filters/OnePoleFilters.cpp ****     setSampleRate(initSampleRate);
 556              		.loc 1 43 1 view .LVU134
 557 0020 0446     		mov	r4, r0
 558              	.LBB132:
 559              	.LBB122:
 560              	.LBB119:
  68:dsp/filters/OnePoleFilters.cpp ****         return;
 561              		.loc 1 68 5 view .LVU135
 562 0022 F1EE10FA 		vmrs	APSR_nzcv, FPSCR
 563              	.LBE119:
 564              	.LBE122:
  43:dsp/filters/OnePoleFilters.cpp ****     setSampleRate(initSampleRate);
 565              		.loc 1 43 76 view .LVU136
 566 0026 0360     		str	r3, [r0]	@ float
 567 0028 4360     		str	r3, [r0, #4]	@ float
 568              	.LBB123:
 569              	.LBB111:
 570              		.loc 1 81 39 view .LVU137
 571 002a A5EE087B 		vfma.f64	d7, d5, d8
 572              	.LBE111:
 573              	.LBE123:
  43:dsp/filters/OnePoleFilters.cpp ****     setSampleRate(initSampleRate);
 574              		.loc 1 43 76 view .LVU138
ARM GAS  C:\Users\digit\AppData\Local\Temp\ccV9ljMH.s 			page 14


 575 002e 0361     		str	r3, [r0, #16]	@ float
 576 0030 8361     		str	r3, [r0, #24]	@ float
 577 0032 C361     		str	r3, [r0, #28]	@ float
 578 0034 0362     		str	r3, [r0, #32]	@ float
 579 0036 4362     		str	r3, [r0, #36]	@ float
 580 0038 8362     		str	r3, [r0, #40]	@ float
 581 003a C362     		str	r3, [r0, #44]	@ float
 582 003c 0363     		str	r3, [r0, #48]	@ float
  44:dsp/filters/OnePoleFilters.cpp ****     setCutoffFreq(initCutoffFreq);
 583              		.loc 1 44 5 is_stmt 1 view .LVU139
 584              	.LVL24:
 585              	.LBB124:
 586              	.LBI107:
  78:dsp/filters/OnePoleFilters.cpp ****     _sampleRate = sampleRate;
 587              		.loc 1 78 6 view .LVU140
 588              	.LBB112:
  79:dsp/filters/OnePoleFilters.cpp ****     _1_sampleRate = 1.0 / _sampleRate;
 589              		.loc 1 79 5 view .LVU141
  79:dsp/filters/OnePoleFilters.cpp ****     _1_sampleRate = 1.0 / _sampleRate;
 590              		.loc 1 79 17 is_stmt 0 view .LVU142
 591 003e C0ED020A 		vstr.32	s1, [r0, #8]
  80:dsp/filters/OnePoleFilters.cpp ****     _maxCutoffFreq = sampleRate / 2.0 - 1.0;
 592              		.loc 1 80 5 is_stmt 1 view .LVU143
  80:dsp/filters/OnePoleFilters.cpp ****     _maxCutoffFreq = sampleRate / 2.0 - 1.0;
 593              		.loc 1 80 19 is_stmt 0 view .LVU144
 594 0042 80ED036A 		vstr.32	s12, [r0, #12]
 595              		.loc 1 81 5 is_stmt 1 view .LVU145
 596              		.loc 1 81 39 is_stmt 0 view .LVU146
 597 0046 B7EEC77B 		vcvt.f32.f64	s14, d7
 598 004a 80ED057A 		vstr.32	s14, [r0, #20]
  82:dsp/filters/OnePoleFilters.cpp ****     setCutoffFreq(_cutoffFreq);
 599              		.loc 1 82 5 is_stmt 1 view .LVU147
 600              	.LVL25:
 601              		.loc 1 82 5 is_stmt 0 view .LVU148
 602              	.LBE112:
 603              	.LBE124:
 604              	.LBE132:
  68:dsp/filters/OnePoleFilters.cpp ****         return;
 605              		.loc 1 68 5 is_stmt 1 view .LVU149
 606              	.LBB133:
 607              	.LBB125:
 608              	.LBB113:
  83:dsp/filters/OnePoleFilters.cpp ****     clear();
 609              		.loc 1 83 5 view .LVU150
 610              		.loc 1 83 5 is_stmt 0 view .LVU151
 611              	.LBE113:
 612              	.LBE125:
 613              	.LBE133:
  59:dsp/filters/OnePoleFilters.cpp ****     output = 0.0;
 614              		.loc 1 59 5 is_stmt 1 view .LVU152
  60:dsp/filters/OnePoleFilters.cpp ****     _x0 = 0.0;
 615              		.loc 1 60 5 view .LVU153
  61:dsp/filters/OnePoleFilters.cpp ****     _x1 = 0.0;
 616              		.loc 1 61 5 view .LVU154
  62:dsp/filters/OnePoleFilters.cpp ****     _y0 = 0.0;
 617              		.loc 1 62 5 view .LVU155
  63:dsp/filters/OnePoleFilters.cpp ****     _y1 = 0.0;
ARM GAS  C:\Users\digit\AppData\Local\Temp\ccV9ljMH.s 			page 15


 618              		.loc 1 63 5 view .LVU156
  64:dsp/filters/OnePoleFilters.cpp **** }
 619              		.loc 1 64 5 view .LVU157
 620              	.LBB134:
  45:dsp/filters/OnePoleFilters.cpp ****     clear();
 621              		.loc 1 45 5 view .LVU158
 622              	.LBB126:
 623              	.LBI115:
  67:dsp/filters/OnePoleFilters.cpp ****     if (cutoffFreq == _cutoffFreq) {
 624              		.loc 1 67 6 view .LVU159
 625              	.LBB120:
  68:dsp/filters/OnePoleFilters.cpp ****         return;
 626              		.loc 1 68 5 view .LVU160
 627 004e 21D0     		beq	.L25
 628              	.LVL26:
 629              	.LBB117:
 630              	.LBI117:
  67:dsp/filters/OnePoleFilters.cpp ****     if (cutoffFreq == _cutoffFreq) {
 631              		.loc 1 67 6 view .LVU161
 632              	.LBB118:
  72:dsp/filters/OnePoleFilters.cpp ****     _b1 = expf(-_2M_PI * _cutoffFreq * _1_sampleRate);
 633              		.loc 1 72 5 view .LVU162
  73:dsp/filters/OnePoleFilters.cpp ****     _a0 = (1.0 + _b1) / 2.0;
 634              		.loc 1 73 26 is_stmt 0 view .LVU163
 635 0050 B7EEC07A 		vcvt.f64.f32	d7, s0
  72:dsp/filters/OnePoleFilters.cpp ****     _b1 = expf(-_2M_PI * _cutoffFreq * _1_sampleRate);
 636              		.loc 1 72 17 view .LVU164
 637 0054 80ED040A 		vstr.32	s0, [r0, #16]
  73:dsp/filters/OnePoleFilters.cpp ****     _a0 = (1.0 + _b1) / 2.0;
 638              		.loc 1 73 5 is_stmt 1 view .LVU165
  73:dsp/filters/OnePoleFilters.cpp ****     _a0 = (1.0 + _b1) / 2.0;
 639              		.loc 1 73 40 is_stmt 0 view .LVU166
 640 0058 B7EEC66A 		vcvt.f64.f32	d6, s12
  73:dsp/filters/OnePoleFilters.cpp ****     _a0 = (1.0 + _b1) / 2.0;
 641              		.loc 1 73 24 view .LVU167
 642 005c 9FED145B 		vldr.64	d5, .L27
 643 0060 27EE050B 		vmul.f64	d0, d7, d5
 644              	.LVL27:
  73:dsp/filters/OnePoleFilters.cpp ****     _a0 = (1.0 + _b1) / 2.0;
 645              		.loc 1 73 38 view .LVU168
 646 0064 20EE060B 		vmul.f64	d0, d0, d6
  73:dsp/filters/OnePoleFilters.cpp ****     _a0 = (1.0 + _b1) / 2.0;
 647              		.loc 1 73 15 view .LVU169
 648 0068 B7EEC00B 		vcvt.f32.f64	s0, d0
 649 006c FFF7FEFF 		bl	expf
 650              	.LVL28:
  74:dsp/filters/OnePoleFilters.cpp ****     _a1 = -_a0;
 651              		.loc 1 74 16 view .LVU170
 652 0070 B7EE006B 		vmov.f64	d6, #1.0e+0
  74:dsp/filters/OnePoleFilters.cpp ****     _a1 = -_a0;
 653              		.loc 1 74 18 view .LVU171
 654 0074 B7EEC07A 		vcvt.f64.f32	d7, s0
  73:dsp/filters/OnePoleFilters.cpp ****     _a0 = (1.0 + _b1) / 2.0;
 655              		.loc 1 73 9 view .LVU172
 656 0078 84ED0C0A 		vstr.32	s0, [r4, #48]
  74:dsp/filters/OnePoleFilters.cpp ****     _a1 = -_a0;
 657              		.loc 1 74 5 is_stmt 1 view .LVU173
ARM GAS  C:\Users\digit\AppData\Local\Temp\ccV9ljMH.s 			page 16


  74:dsp/filters/OnePoleFilters.cpp ****     _a1 = -_a0;
 658              		.loc 1 74 16 is_stmt 0 view .LVU174
 659 007c 37EE067B 		vadd.f64	d7, d7, d6
  74:dsp/filters/OnePoleFilters.cpp ****     _a1 = -_a0;
 660              		.loc 1 74 23 view .LVU175
 661 0080 27EE087B 		vmul.f64	d7, d7, d8
 662 0084 B7EEC77B 		vcvt.f32.f64	s14, d7
  75:dsp/filters/OnePoleFilters.cpp **** }
 663              		.loc 1 75 11 view .LVU176
 664 0088 F1EE477A 		vneg.f32	s15, s14
  74:dsp/filters/OnePoleFilters.cpp ****     _a1 = -_a0;
 665              		.loc 1 74 9 view .LVU177
 666 008c 84ED0A7A 		vstr.32	s14, [r4, #40]
  75:dsp/filters/OnePoleFilters.cpp **** }
 667              		.loc 1 75 5 is_stmt 1 view .LVU178
  75:dsp/filters/OnePoleFilters.cpp **** }
 668              		.loc 1 75 9 is_stmt 0 view .LVU179
 669 0090 C4ED0B7A 		vstr.32	s15, [r4, #44]
 670              	.LVL29:
 671              	.L25:
  75:dsp/filters/OnePoleFilters.cpp **** }
 672              		.loc 1 75 9 view .LVU180
 673              	.LBE118:
 674              	.LBE117:
 675              	.LBE120:
 676              	.LBE126:
  46:dsp/filters/OnePoleFilters.cpp **** }
 677              		.loc 1 46 5 is_stmt 1 view .LVU181
 678              	.LBB127:
 679              	.LBI127:
  58:dsp/filters/OnePoleFilters.cpp ****     input = 0.0;
 680              		.loc 1 58 6 view .LVU182
 681              	.LBB128:
  59:dsp/filters/OnePoleFilters.cpp ****     output = 0.0;
 682              		.loc 1 59 5 view .LVU183
  59:dsp/filters/OnePoleFilters.cpp ****     output = 0.0;
 683              		.loc 1 59 11 is_stmt 0 view .LVU184
 684 0094 0023     		movs	r3, #0
 685              	.LBE128:
 686              	.LBE127:
 687              	.LBE134:
  47:dsp/filters/OnePoleFilters.cpp **** 
 688              		.loc 1 47 1 view .LVU185
 689 0096 2046     		mov	r0, r4
 690 0098 BDEC028B 		vldm	sp!, {d8}
 691              		.cfi_restore 80
 692              		.cfi_restore 81
 693              		.cfi_def_cfa_offset 8
 694              	.LBB135:
 695              	.LBB130:
 696              	.LBB129:
  59:dsp/filters/OnePoleFilters.cpp ****     output = 0.0;
 697              		.loc 1 59 11 view .LVU186
 698 009c 2360     		str	r3, [r4]	@ float
  60:dsp/filters/OnePoleFilters.cpp ****     _x0 = 0.0;
 699              		.loc 1 60 5 is_stmt 1 view .LVU187
  60:dsp/filters/OnePoleFilters.cpp ****     _x0 = 0.0;
ARM GAS  C:\Users\digit\AppData\Local\Temp\ccV9ljMH.s 			page 17


 700              		.loc 1 60 12 is_stmt 0 view .LVU188
 701 009e 6360     		str	r3, [r4, #4]	@ float
  61:dsp/filters/OnePoleFilters.cpp ****     _x1 = 0.0;
 702              		.loc 1 61 5 is_stmt 1 view .LVU189
  61:dsp/filters/OnePoleFilters.cpp ****     _x1 = 0.0;
 703              		.loc 1 61 9 is_stmt 0 view .LVU190
 704 00a0 2362     		str	r3, [r4, #32]	@ float
  62:dsp/filters/OnePoleFilters.cpp ****     _y0 = 0.0;
 705              		.loc 1 62 5 is_stmt 1 view .LVU191
  62:dsp/filters/OnePoleFilters.cpp ****     _y0 = 0.0;
 706              		.loc 1 62 9 is_stmt 0 view .LVU192
 707 00a2 6362     		str	r3, [r4, #36]	@ float
  63:dsp/filters/OnePoleFilters.cpp ****     _y1 = 0.0;
 708              		.loc 1 63 5 is_stmt 1 view .LVU193
  63:dsp/filters/OnePoleFilters.cpp ****     _y1 = 0.0;
 709              		.loc 1 63 9 is_stmt 0 view .LVU194
 710 00a4 A361     		str	r3, [r4, #24]	@ float
  64:dsp/filters/OnePoleFilters.cpp **** }
 711              		.loc 1 64 5 is_stmt 1 view .LVU195
  64:dsp/filters/OnePoleFilters.cpp **** }
 712              		.loc 1 64 9 is_stmt 0 view .LVU196
 713 00a6 E361     		str	r3, [r4, #28]	@ float
 714              	.LVL30:
  64:dsp/filters/OnePoleFilters.cpp **** }
 715              		.loc 1 64 9 view .LVU197
 716              	.LBE129:
 717              	.LBE130:
 718              	.LBE135:
  47:dsp/filters/OnePoleFilters.cpp **** 
 719              		.loc 1 47 1 view .LVU198
 720 00a8 10BD     		pop	{r4, pc}
 721              	.LVL31:
 722              	.L28:
  47:dsp/filters/OnePoleFilters.cpp **** 
 723              		.loc 1 47 1 view .LVU199
 724 00aa 00BFAFF3 		.align	3
 724      0080
 725              	.L27:
 726 00b0 182D4454 		.word	1413754136
 727 00b4 FB2119C0 		.word	-1072094725
 728              		.cfi_endproc
 729              	.LFE553:
 731              		.global	_ZN15OnePoleHPFilterC1Eff
 732              		.thumb_set _ZN15OnePoleHPFilterC1Eff,_ZN15OnePoleHPFilterC2Eff
 733              		.section	.text._ZN15OnePoleHPFilter7processEv,"ax",%progbits
 734              		.align	1
 735              		.p2align 2,,3
 736              		.global	_ZN15OnePoleHPFilter7processEv
 737              		.syntax unified
 738              		.thumb
 739              		.thumb_func
 740              		.fpu fpv5-d16
 742              	_ZN15OnePoleHPFilter7processEv:
 743              	.LVL32:
 744              	.LFB555:
  49:dsp/filters/OnePoleFilters.cpp ****     _x0 = input;
 745              		.loc 1 49 34 is_stmt 1 view -0
ARM GAS  C:\Users\digit\AppData\Local\Temp\ccV9ljMH.s 			page 18


 746              		.cfi_startproc
 747              		@ args = 0, pretend = 0, frame = 0
 748              		@ frame_needed = 0, uses_anonymous_args = 0
 749              		@ link register save eliminated.
  50:dsp/filters/OnePoleFilters.cpp ****     _y0 = _a0 * _x0 + _a1 * _x1 + _b1 * _y1;
 750              		.loc 1 50 5 view .LVU201
  51:dsp/filters/OnePoleFilters.cpp ****     _y1 = _y0;
 751              		.loc 1 51 27 is_stmt 0 view .LVU202
 752 0000 90ED097A 		vldr.32	s14, [r0, #36]
 753 0004 90ED0B0A 		vldr.32	s0, [r0, #44]
  50:dsp/filters/OnePoleFilters.cpp ****     _y0 = _a0 * _x0 + _a1 * _x1 + _b1 * _y1;
 754              		.loc 1 50 11 view .LVU203
 755 0008 D0ED007A 		vldr.32	s15, [r0]
  51:dsp/filters/OnePoleFilters.cpp ****     _y1 = _y0;
 756              		.loc 1 51 27 view .LVU204
 757 000c 20EE070A 		vmul.f32	s0, s0, s14
  51:dsp/filters/OnePoleFilters.cpp ****     _y1 = _y0;
 758              		.loc 1 51 21 view .LVU205
 759 0010 90ED0A6A 		vldr.32	s12, [r0, #40]
  51:dsp/filters/OnePoleFilters.cpp ****     _y1 = _y0;
 760              		.loc 1 51 33 view .LVU206
 761 0014 90ED077A 		vldr.32	s14, [r0, #28]
 762 0018 D0ED0C6A 		vldr.32	s13, [r0, #48]
  51:dsp/filters/OnePoleFilters.cpp ****     _y1 = _y0;
 763              		.loc 1 51 21 view .LVU207
 764 001c A7EE860A 		vfma.f32	s0, s15, s12
  50:dsp/filters/OnePoleFilters.cpp ****     _y0 = _a0 * _x0 + _a1 * _x1 + _b1 * _y1;
 765              		.loc 1 50 9 view .LVU208
 766 0020 C0ED087A 		vstr.32	s15, [r0, #32]
  51:dsp/filters/OnePoleFilters.cpp ****     _y1 = _y0;
 767              		.loc 1 51 5 is_stmt 1 view .LVU209
  53:dsp/filters/OnePoleFilters.cpp ****     output = _y0;
 768              		.loc 1 53 9 is_stmt 0 view .LVU210
 769 0024 C0ED097A 		vstr.32	s15, [r0, #36]
  51:dsp/filters/OnePoleFilters.cpp ****     _y1 = _y0;
 770              		.loc 1 51 33 view .LVU211
 771 0028 A6EE870A 		vfma.f32	s0, s13, s14
  51:dsp/filters/OnePoleFilters.cpp ****     _y1 = _y0;
 772              		.loc 1 51 9 view .LVU212
 773 002c 80ED060A 		vstr.32	s0, [r0, #24]
  52:dsp/filters/OnePoleFilters.cpp ****     _x1 = _x0;
 774              		.loc 1 52 5 is_stmt 1 view .LVU213
  52:dsp/filters/OnePoleFilters.cpp ****     _x1 = _x0;
 775              		.loc 1 52 9 is_stmt 0 view .LVU214
 776 0030 80ED070A 		vstr.32	s0, [r0, #28]
  53:dsp/filters/OnePoleFilters.cpp ****     output = _y0;
 777              		.loc 1 53 5 is_stmt 1 view .LVU215
  54:dsp/filters/OnePoleFilters.cpp ****     return _y0;
 778              		.loc 1 54 5 view .LVU216
  54:dsp/filters/OnePoleFilters.cpp ****     return _y0;
 779              		.loc 1 54 12 is_stmt 0 view .LVU217
 780 0034 80ED010A 		vstr.32	s0, [r0, #4]
  55:dsp/filters/OnePoleFilters.cpp **** }
 781              		.loc 1 55 5 is_stmt 1 view .LVU218
  56:dsp/filters/OnePoleFilters.cpp **** 
 782              		.loc 1 56 1 is_stmt 0 view .LVU219
 783 0038 7047     		bx	lr
ARM GAS  C:\Users\digit\AppData\Local\Temp\ccV9ljMH.s 			page 19


 784              		.cfi_endproc
 785              	.LFE555:
 787 003a 00BF     		.section	.text._ZN15OnePoleHPFilter5clearEv,"ax",%progbits
 788              		.align	1
 789              		.p2align 2,,3
 790              		.global	_ZN15OnePoleHPFilter5clearEv
 791              		.syntax unified
 792              		.thumb
 793              		.thumb_func
 794              		.fpu fpv5-d16
 796              	_ZN15OnePoleHPFilter5clearEv:
 797              	.LVL33:
 798              	.LFB556:
  58:dsp/filters/OnePoleFilters.cpp ****     input = 0.0;
 799              		.loc 1 58 31 is_stmt 1 view -0
 800              		.cfi_startproc
 801              		@ args = 0, pretend = 0, frame = 0
 802              		@ frame_needed = 0, uses_anonymous_args = 0
 803              		@ link register save eliminated.
  59:dsp/filters/OnePoleFilters.cpp ****     output = 0.0;
 804              		.loc 1 59 5 view .LVU221
  59:dsp/filters/OnePoleFilters.cpp ****     output = 0.0;
 805              		.loc 1 59 11 is_stmt 0 view .LVU222
 806 0000 0023     		movs	r3, #0
 807 0002 0360     		str	r3, [r0]	@ float
  60:dsp/filters/OnePoleFilters.cpp ****     _x0 = 0.0;
 808              		.loc 1 60 5 is_stmt 1 view .LVU223
  60:dsp/filters/OnePoleFilters.cpp ****     _x0 = 0.0;
 809              		.loc 1 60 12 is_stmt 0 view .LVU224
 810 0004 4360     		str	r3, [r0, #4]	@ float
  61:dsp/filters/OnePoleFilters.cpp ****     _x1 = 0.0;
 811              		.loc 1 61 5 is_stmt 1 view .LVU225
  61:dsp/filters/OnePoleFilters.cpp ****     _x1 = 0.0;
 812              		.loc 1 61 9 is_stmt 0 view .LVU226
 813 0006 0362     		str	r3, [r0, #32]	@ float
  62:dsp/filters/OnePoleFilters.cpp ****     _y0 = 0.0;
 814              		.loc 1 62 5 is_stmt 1 view .LVU227
  62:dsp/filters/OnePoleFilters.cpp ****     _y0 = 0.0;
 815              		.loc 1 62 9 is_stmt 0 view .LVU228
 816 0008 4362     		str	r3, [r0, #36]	@ float
  63:dsp/filters/OnePoleFilters.cpp ****     _y1 = 0.0;
 817              		.loc 1 63 5 is_stmt 1 view .LVU229
  63:dsp/filters/OnePoleFilters.cpp ****     _y1 = 0.0;
 818              		.loc 1 63 9 is_stmt 0 view .LVU230
 819 000a 8361     		str	r3, [r0, #24]	@ float
  64:dsp/filters/OnePoleFilters.cpp **** }
 820              		.loc 1 64 5 is_stmt 1 view .LVU231
  64:dsp/filters/OnePoleFilters.cpp **** }
 821              		.loc 1 64 9 is_stmt 0 view .LVU232
 822 000c C361     		str	r3, [r0, #28]	@ float
  65:dsp/filters/OnePoleFilters.cpp **** 
 823              		.loc 1 65 1 view .LVU233
 824 000e 7047     		bx	lr
 825              		.cfi_endproc
 826              	.LFE556:
 828              		.section	.text._ZN15OnePoleHPFilter13setCutoffFreqEf,"ax",%progbits
 829              		.align	1
ARM GAS  C:\Users\digit\AppData\Local\Temp\ccV9ljMH.s 			page 20


 830              		.p2align 2,,3
 831              		.global	_ZN15OnePoleHPFilter13setCutoffFreqEf
 832              		.syntax unified
 833              		.thumb
 834              		.thumb_func
 835              		.fpu fpv5-d16
 837              	_ZN15OnePoleHPFilter13setCutoffFreqEf:
 838              	.LVL34:
 839              	.LFB557:
  67:dsp/filters/OnePoleFilters.cpp ****     if (cutoffFreq == _cutoffFreq) {
 840              		.loc 1 67 55 is_stmt 1 view -0
 841              		.cfi_startproc
 842              		@ args = 0, pretend = 0, frame = 0
 843              		@ frame_needed = 0, uses_anonymous_args = 0
  68:dsp/filters/OnePoleFilters.cpp ****         return;
 844              		.loc 1 68 5 view .LVU235
 845 0000 D0ED047A 		vldr.32	s15, [r0, #16]
 846 0004 F4EE407A 		vcmp.f32	s15, s0
 847 0008 F1EE10FA 		vmrs	APSR_nzcv, FPSCR
 848 000c 00D1     		bne	.L37
 849 000e 7047     		bx	lr
 850              	.L37:
 851              	.LVL35:
 852              	.LBB138:
 853              	.LBI138:
  67:dsp/filters/OnePoleFilters.cpp ****     if (cutoffFreq == _cutoffFreq) {
 854              		.loc 1 67 6 view .LVU236
 855              	.LBB139:
  72:dsp/filters/OnePoleFilters.cpp ****     _b1 = expf(-_2M_PI * _cutoffFreq * _1_sampleRate);
 856              		.loc 1 72 5 view .LVU237
  73:dsp/filters/OnePoleFilters.cpp ****     _a0 = (1.0 + _b1) / 2.0;
 857              		.loc 1 73 24 is_stmt 0 view .LVU238
 858 0010 9FED155B 		vldr.64	d5, .L38
  73:dsp/filters/OnePoleFilters.cpp ****     _a0 = (1.0 + _b1) / 2.0;
 859              		.loc 1 73 26 view .LVU239
 860 0014 B7EEC07A 		vcvt.f64.f32	d7, s0
  72:dsp/filters/OnePoleFilters.cpp ****     _b1 = expf(-_2M_PI * _cutoffFreq * _1_sampleRate);
 861              		.loc 1 72 17 view .LVU240
 862 0018 80ED040A 		vstr.32	s0, [r0, #16]
  73:dsp/filters/OnePoleFilters.cpp ****     _a0 = (1.0 + _b1) / 2.0;
 863              		.loc 1 73 5 is_stmt 1 view .LVU241
  73:dsp/filters/OnePoleFilters.cpp ****     _a0 = (1.0 + _b1) / 2.0;
 864              		.loc 1 73 40 is_stmt 0 view .LVU242
 865 001c D0ED036A 		vldr.32	s13, [r0, #12]
  73:dsp/filters/OnePoleFilters.cpp ****     _a0 = (1.0 + _b1) / 2.0;
 866              		.loc 1 73 24 view .LVU243
 867 0020 27EE050B 		vmul.f64	d0, d7, d5
 868              	.LVL36:
  73:dsp/filters/OnePoleFilters.cpp ****     _a0 = (1.0 + _b1) / 2.0;
 869              		.loc 1 73 40 view .LVU244
 870 0024 B7EEE67A 		vcvt.f64.f32	d7, s13
 871              	.LBE139:
 872              	.LBE138:
  67:dsp/filters/OnePoleFilters.cpp ****     if (cutoffFreq == _cutoffFreq) {
 873              		.loc 1 67 55 view .LVU245
 874 0028 10B5     		push	{r4, lr}
 875              		.cfi_def_cfa_offset 8
ARM GAS  C:\Users\digit\AppData\Local\Temp\ccV9ljMH.s 			page 21


 876              		.cfi_offset 4, -8
 877              		.cfi_offset 14, -4
 878              	.LBB141:
 879              	.LBB140:
  73:dsp/filters/OnePoleFilters.cpp ****     _a0 = (1.0 + _b1) / 2.0;
 880              		.loc 1 73 38 view .LVU246
 881 002a 20EE070B 		vmul.f64	d0, d0, d7
 882 002e 0446     		mov	r4, r0
  73:dsp/filters/OnePoleFilters.cpp ****     _a0 = (1.0 + _b1) / 2.0;
 883              		.loc 1 73 15 view .LVU247
 884 0030 B7EEC00B 		vcvt.f32.f64	s0, d0
 885 0034 FFF7FEFF 		bl	expf
 886              	.LVL37:
  74:dsp/filters/OnePoleFilters.cpp ****     _a1 = -_a0;
 887              		.loc 1 74 16 view .LVU248
 888 0038 B7EE005B 		vmov.f64	d5, #1.0e+0
  74:dsp/filters/OnePoleFilters.cpp ****     _a1 = -_a0;
 889              		.loc 1 74 18 view .LVU249
 890 003c B7EEC07A 		vcvt.f64.f32	d7, s0
  73:dsp/filters/OnePoleFilters.cpp ****     _a0 = (1.0 + _b1) / 2.0;
 891              		.loc 1 73 9 view .LVU250
 892 0040 84ED0C0A 		vstr.32	s0, [r4, #48]
  74:dsp/filters/OnePoleFilters.cpp ****     _a1 = -_a0;
 893              		.loc 1 74 5 is_stmt 1 view .LVU251
  74:dsp/filters/OnePoleFilters.cpp ****     _a1 = -_a0;
 894              		.loc 1 74 23 is_stmt 0 view .LVU252
 895 0044 B6EE006B 		vmov.f64	d6, #5.0e-1
  74:dsp/filters/OnePoleFilters.cpp ****     _a1 = -_a0;
 896              		.loc 1 74 16 view .LVU253
 897 0048 37EE057B 		vadd.f64	d7, d7, d5
  74:dsp/filters/OnePoleFilters.cpp ****     _a1 = -_a0;
 898              		.loc 1 74 23 view .LVU254
 899 004c 27EE067B 		vmul.f64	d7, d7, d6
 900 0050 B7EEC77B 		vcvt.f32.f64	s14, d7
  75:dsp/filters/OnePoleFilters.cpp **** }
 901              		.loc 1 75 11 view .LVU255
 902 0054 F1EE477A 		vneg.f32	s15, s14
  74:dsp/filters/OnePoleFilters.cpp ****     _a1 = -_a0;
 903              		.loc 1 74 9 view .LVU256
 904 0058 84ED0A7A 		vstr.32	s14, [r4, #40]
  75:dsp/filters/OnePoleFilters.cpp **** }
 905              		.loc 1 75 5 is_stmt 1 view .LVU257
  75:dsp/filters/OnePoleFilters.cpp **** }
 906              		.loc 1 75 9 is_stmt 0 view .LVU258
 907 005c C4ED0B7A 		vstr.32	s15, [r4, #44]
 908              	.LVL38:
  75:dsp/filters/OnePoleFilters.cpp **** }
 909              		.loc 1 75 9 view .LVU259
 910              	.LBE140:
 911              	.LBE141:
  76:dsp/filters/OnePoleFilters.cpp **** 
 912              		.loc 1 76 1 view .LVU260
 913 0060 10BD     		pop	{r4, pc}
 914              	.LVL39:
 915              	.L39:
  76:dsp/filters/OnePoleFilters.cpp **** 
 916              		.loc 1 76 1 view .LVU261
ARM GAS  C:\Users\digit\AppData\Local\Temp\ccV9ljMH.s 			page 22


 917 0062 00BFAFF3 		.align	3
 917      0080
 918              	.L38:
 919 0068 182D4454 		.word	1413754136
 920 006c FB2119C0 		.word	-1072094725
 921              		.cfi_endproc
 922              	.LFE557:
 924              		.section	.text._ZN15OnePoleHPFilter13setSampleRateEf,"ax",%progbits
 925              		.align	1
 926              		.p2align 2,,3
 927              		.global	_ZN15OnePoleHPFilter13setSampleRateEf
 928              		.syntax unified
 929              		.thumb
 930              		.thumb_func
 931              		.fpu fpv5-d16
 933              	_ZN15OnePoleHPFilter13setSampleRateEf:
 934              	.LVL40:
 935              	.LFB558:
  78:dsp/filters/OnePoleFilters.cpp ****     _sampleRate = sampleRate;
 936              		.loc 1 78 55 is_stmt 1 view -0
 937              		.cfi_startproc
 938              		@ args = 0, pretend = 0, frame = 0
 939              		@ frame_needed = 0, uses_anonymous_args = 0
  79:dsp/filters/OnePoleFilters.cpp ****     _1_sampleRate = 1.0 / _sampleRate;
 940              		.loc 1 79 5 view .LVU263
  78:dsp/filters/OnePoleFilters.cpp ****     _sampleRate = sampleRate;
 941              		.loc 1 78 55 is_stmt 0 view .LVU264
 942 0000 10B5     		push	{r4, lr}
 943              		.cfi_def_cfa_offset 8
 944              		.cfi_offset 4, -8
 945              		.cfi_offset 14, -4
  81:dsp/filters/OnePoleFilters.cpp ****     setCutoffFreq(_cutoffFreq);
 946              		.loc 1 81 39 view .LVU265
 947 0002 BFEE007B 		vmov.f64	d7, #-1.0e+0
  78:dsp/filters/OnePoleFilters.cpp ****     _sampleRate = sampleRate;
 948              		.loc 1 78 55 view .LVU266
 949 0006 0446     		mov	r4, r0
  81:dsp/filters/OnePoleFilters.cpp ****     setCutoffFreq(_cutoffFreq);
 950              		.loc 1 81 22 view .LVU267
 951 0008 B7EEC04A 		vcvt.f64.f32	d4, s0
  79:dsp/filters/OnePoleFilters.cpp ****     _1_sampleRate = 1.0 / _sampleRate;
 952              		.loc 1 79 17 view .LVU268
 953 000c 80ED020A 		vstr.32	s0, [r0, #8]
  80:dsp/filters/OnePoleFilters.cpp ****     _maxCutoffFreq = sampleRate / 2.0 - 1.0;
 954              		.loc 1 80 5 is_stmt 1 view .LVU269
  80:dsp/filters/OnePoleFilters.cpp ****     _maxCutoffFreq = sampleRate / 2.0 - 1.0;
 955              		.loc 1 80 25 is_stmt 0 view .LVU270
 956 0010 F7EE006A 		vmov.f32	s13, #1.0e+0
  78:dsp/filters/OnePoleFilters.cpp ****     _sampleRate = sampleRate;
 957              		.loc 1 78 55 view .LVU271
 958 0014 2DED028B 		vpush.64	{d8}
 959              		.cfi_def_cfa_offset 16
 960              		.cfi_offset 80, -16
 961              		.cfi_offset 81, -12
  81:dsp/filters/OnePoleFilters.cpp ****     setCutoffFreq(_cutoffFreq);
 962              		.loc 1 81 39 view .LVU272
 963 0018 B6EE008B 		vmov.f64	d8, #5.0e-1
ARM GAS  C:\Users\digit\AppData\Local\Temp\ccV9ljMH.s 			page 23


  80:dsp/filters/OnePoleFilters.cpp ****     _maxCutoffFreq = sampleRate / 2.0 - 1.0;
 964              		.loc 1 80 25 view .LVU273
 965 001c C6EE805A 		vdiv.f32	s11, s13, s0
  81:dsp/filters/OnePoleFilters.cpp ****     setCutoffFreq(_cutoffFreq);
 966              		.loc 1 81 39 view .LVU274
 967 0020 A4EE087B 		vfma.f64	d7, d4, d8
 968 0024 B0EE476B 		vmov.f64	d6, d7
  82:dsp/filters/OnePoleFilters.cpp ****     clear();
 969              		.loc 1 82 18 view .LVU275
 970 0028 D0ED047A 		vldr.32	s15, [r0, #16]
  80:dsp/filters/OnePoleFilters.cpp ****     _maxCutoffFreq = sampleRate / 2.0 - 1.0;
 971              		.loc 1 80 19 view .LVU276
 972 002c C0ED035A 		vstr.32	s11, [r0, #12]
  81:dsp/filters/OnePoleFilters.cpp ****     setCutoffFreq(_cutoffFreq);
 973              		.loc 1 81 5 is_stmt 1 view .LVU277
 974              	.LBB148:
 975              	.LBB149:
  68:dsp/filters/OnePoleFilters.cpp ****         return;
 976              		.loc 1 68 5 is_stmt 0 view .LVU278
 977 0030 F4EE677A 		vcmp.f32	s15, s15
 978              	.LBE149:
 979              	.LBE148:
  81:dsp/filters/OnePoleFilters.cpp ****     setCutoffFreq(_cutoffFreq);
 980              		.loc 1 81 39 view .LVU279
 981 0034 B7EEC67B 		vcvt.f32.f64	s14, d6
 982              	.LBB154:
 983              	.LBB152:
  68:dsp/filters/OnePoleFilters.cpp ****         return;
 984              		.loc 1 68 5 view .LVU280
 985 0038 F1EE10FA 		vmrs	APSR_nzcv, FPSCR
 986              	.LBE152:
 987              	.LBE154:
  81:dsp/filters/OnePoleFilters.cpp ****     setCutoffFreq(_cutoffFreq);
 988              		.loc 1 81 39 view .LVU281
 989 003c 80ED057A 		vstr.32	s14, [r0, #20]
  82:dsp/filters/OnePoleFilters.cpp ****     clear();
 990              		.loc 1 82 5 is_stmt 1 view .LVU282
 991              	.LVL41:
 992              	.LBB155:
 993              	.LBI148:
  67:dsp/filters/OnePoleFilters.cpp ****     if (cutoffFreq == _cutoffFreq) {
 994              		.loc 1 67 6 view .LVU283
 995              	.LBB153:
  68:dsp/filters/OnePoleFilters.cpp ****         return;
 996              		.loc 1 68 5 view .LVU284
 997 0040 1FD0     		beq	.L41
 998              	.LVL42:
 999              	.LBB150:
 1000              	.LBI150:
  67:dsp/filters/OnePoleFilters.cpp ****     if (cutoffFreq == _cutoffFreq) {
 1001              		.loc 1 67 6 view .LVU285
 1002              	.LBB151:
  72:dsp/filters/OnePoleFilters.cpp ****     _b1 = expf(-_2M_PI * _cutoffFreq * _1_sampleRate);
 1003              		.loc 1 72 5 view .LVU286
  73:dsp/filters/OnePoleFilters.cpp ****     _a0 = (1.0 + _b1) / 2.0;
 1004              		.loc 1 73 5 view .LVU287
  73:dsp/filters/OnePoleFilters.cpp ****     _a0 = (1.0 + _b1) / 2.0;
ARM GAS  C:\Users\digit\AppData\Local\Temp\ccV9ljMH.s 			page 24


 1005              		.loc 1 73 26 is_stmt 0 view .LVU288
 1006 0042 B7EEE70A 		vcvt.f64.f32	d0, s15
 1007              	.LVL43:
  73:dsp/filters/OnePoleFilters.cpp ****     _a0 = (1.0 + _b1) / 2.0;
 1008              		.loc 1 73 40 view .LVU289
 1009 0046 B7EEE57A 		vcvt.f64.f32	d7, s11
  73:dsp/filters/OnePoleFilters.cpp ****     _a0 = (1.0 + _b1) / 2.0;
 1010              		.loc 1 73 24 view .LVU290
 1011 004a 9FED136B 		vldr.64	d6, .L43
 1012 004e 20EE060B 		vmul.f64	d0, d0, d6
  73:dsp/filters/OnePoleFilters.cpp ****     _a0 = (1.0 + _b1) / 2.0;
 1013              		.loc 1 73 38 view .LVU291
 1014 0052 20EE070B 		vmul.f64	d0, d0, d7
  73:dsp/filters/OnePoleFilters.cpp ****     _a0 = (1.0 + _b1) / 2.0;
 1015              		.loc 1 73 15 view .LVU292
 1016 0056 B7EEC00B 		vcvt.f32.f64	s0, d0
 1017 005a FFF7FEFF 		bl	expf
 1018              	.LVL44:
  74:dsp/filters/OnePoleFilters.cpp ****     _a1 = -_a0;
 1019              		.loc 1 74 16 view .LVU293
 1020 005e B7EE006B 		vmov.f64	d6, #1.0e+0
  74:dsp/filters/OnePoleFilters.cpp ****     _a1 = -_a0;
 1021              		.loc 1 74 18 view .LVU294
 1022 0062 B7EEC07A 		vcvt.f64.f32	d7, s0
  73:dsp/filters/OnePoleFilters.cpp ****     _a0 = (1.0 + _b1) / 2.0;
 1023              		.loc 1 73 9 view .LVU295
 1024 0066 84ED0C0A 		vstr.32	s0, [r4, #48]
  74:dsp/filters/OnePoleFilters.cpp ****     _a1 = -_a0;
 1025              		.loc 1 74 5 is_stmt 1 view .LVU296
  74:dsp/filters/OnePoleFilters.cpp ****     _a1 = -_a0;
 1026              		.loc 1 74 16 is_stmt 0 view .LVU297
 1027 006a 37EE067B 		vadd.f64	d7, d7, d6
  74:dsp/filters/OnePoleFilters.cpp ****     _a1 = -_a0;
 1028              		.loc 1 74 23 view .LVU298
 1029 006e 27EE087B 		vmul.f64	d7, d7, d8
 1030 0072 B7EEC77B 		vcvt.f32.f64	s14, d7
  75:dsp/filters/OnePoleFilters.cpp **** }
 1031              		.loc 1 75 11 view .LVU299
 1032 0076 F1EE477A 		vneg.f32	s15, s14
  74:dsp/filters/OnePoleFilters.cpp ****     _a1 = -_a0;
 1033              		.loc 1 74 9 view .LVU300
 1034 007a 84ED0A7A 		vstr.32	s14, [r4, #40]
  75:dsp/filters/OnePoleFilters.cpp **** }
 1035              		.loc 1 75 5 is_stmt 1 view .LVU301
  75:dsp/filters/OnePoleFilters.cpp **** }
 1036              		.loc 1 75 9 is_stmt 0 view .LVU302
 1037 007e C4ED0B7A 		vstr.32	s15, [r4, #44]
 1038              	.LVL45:
 1039              	.L41:
  75:dsp/filters/OnePoleFilters.cpp **** }
 1040              		.loc 1 75 9 view .LVU303
 1041              	.LBE151:
 1042              	.LBE150:
 1043              	.LBE153:
 1044              	.LBE155:
 1045              		.loc 1 83 5 is_stmt 1 view .LVU304
 1046              	.LBB156:
ARM GAS  C:\Users\digit\AppData\Local\Temp\ccV9ljMH.s 			page 25


 1047              	.LBI156:
  58:dsp/filters/OnePoleFilters.cpp ****     input = 0.0;
 1048              		.loc 1 58 6 view .LVU305
 1049              	.LBB157:
  59:dsp/filters/OnePoleFilters.cpp ****     output = 0.0;
 1050              		.loc 1 59 5 view .LVU306
  59:dsp/filters/OnePoleFilters.cpp ****     output = 0.0;
 1051              		.loc 1 59 11 is_stmt 0 view .LVU307
 1052 0082 0023     		movs	r3, #0
 1053              	.LBE157:
 1054              	.LBE156:
  84:dsp/filters/OnePoleFilters.cpp **** }
 1055              		.loc 1 84 1 view .LVU308
 1056 0084 BDEC028B 		vldm	sp!, {d8}
 1057              		.cfi_restore 80
 1058              		.cfi_restore 81
 1059              		.cfi_def_cfa_offset 8
 1060              	.LBB159:
 1061              	.LBB158:
  59:dsp/filters/OnePoleFilters.cpp ****     output = 0.0;
 1062              		.loc 1 59 11 view .LVU309
 1063 0088 2360     		str	r3, [r4]	@ float
  60:dsp/filters/OnePoleFilters.cpp ****     _x0 = 0.0;
 1064              		.loc 1 60 5 is_stmt 1 view .LVU310
  60:dsp/filters/OnePoleFilters.cpp ****     _x0 = 0.0;
 1065              		.loc 1 60 12 is_stmt 0 view .LVU311
 1066 008a 6360     		str	r3, [r4, #4]	@ float
  61:dsp/filters/OnePoleFilters.cpp ****     _x1 = 0.0;
 1067              		.loc 1 61 5 is_stmt 1 view .LVU312
  61:dsp/filters/OnePoleFilters.cpp ****     _x1 = 0.0;
 1068              		.loc 1 61 9 is_stmt 0 view .LVU313
 1069 008c 2362     		str	r3, [r4, #32]	@ float
  62:dsp/filters/OnePoleFilters.cpp ****     _y0 = 0.0;
 1070              		.loc 1 62 5 is_stmt 1 view .LVU314
  62:dsp/filters/OnePoleFilters.cpp ****     _y0 = 0.0;
 1071              		.loc 1 62 9 is_stmt 0 view .LVU315
 1072 008e 6362     		str	r3, [r4, #36]	@ float
  63:dsp/filters/OnePoleFilters.cpp ****     _y1 = 0.0;
 1073              		.loc 1 63 5 is_stmt 1 view .LVU316
  63:dsp/filters/OnePoleFilters.cpp ****     _y1 = 0.0;
 1074              		.loc 1 63 9 is_stmt 0 view .LVU317
 1075 0090 A361     		str	r3, [r4, #24]	@ float
  64:dsp/filters/OnePoleFilters.cpp **** }
 1076              		.loc 1 64 5 is_stmt 1 view .LVU318
  64:dsp/filters/OnePoleFilters.cpp **** }
 1077              		.loc 1 64 9 is_stmt 0 view .LVU319
 1078 0092 E361     		str	r3, [r4, #28]	@ float
 1079              	.LVL46:
  64:dsp/filters/OnePoleFilters.cpp **** }
 1080              		.loc 1 64 9 view .LVU320
 1081              	.LBE158:
 1082              	.LBE159:
 1083              		.loc 1 84 1 view .LVU321
 1084 0094 10BD     		pop	{r4, pc}
 1085              	.LVL47:
 1086              	.L44:
 1087              		.loc 1 84 1 view .LVU322
ARM GAS  C:\Users\digit\AppData\Local\Temp\ccV9ljMH.s 			page 26


 1088 0096 00BF     		.align	3
 1089              	.L43:
 1090 0098 182D4454 		.word	1413754136
 1091 009c FB2119C0 		.word	-1072094725
 1092              		.cfi_endproc
 1093              	.LFE558:
 1095              		.section	.text._ZN9DCBlockerC2Ev,"ax",%progbits
 1096              		.align	1
 1097              		.p2align 2,,3
 1098              		.global	_ZN9DCBlockerC2Ev
 1099              		.syntax unified
 1100              		.thumb
 1101              		.thumb_func
 1102              		.fpu fpv5-d16
 1104              	_ZN9DCBlockerC2Ev:
 1105              	.LVL48:
 1106              	.LFB560:
  85:dsp/filters/OnePoleFilters.cpp **** 
  86:dsp/filters/OnePoleFilters.cpp **** //////////////////////////////////////////////////////////////////////////////////////////////////
  87:dsp/filters/OnePoleFilters.cpp **** 
  88:dsp/filters/OnePoleFilters.cpp **** DCBlocker::DCBlocker() {
 1107              		.loc 1 88 1 is_stmt 1 view -0
 1108              		.cfi_startproc
 1109              		@ args = 0, pretend = 0, frame = 0
 1110              		@ frame_needed = 0, uses_anonymous_args = 0
 1111              		@ link register save eliminated.
  89:dsp/filters/OnePoleFilters.cpp ****     setSampleRate(32000.0);
 1112              		.loc 1 89 5 view .LVU324
 1113              	.LBB160:
 1114              	.LBB161:
  90:dsp/filters/OnePoleFilters.cpp ****     setCutoffFreq(20.f);
  91:dsp/filters/OnePoleFilters.cpp ****     clear();
  92:dsp/filters/OnePoleFilters.cpp **** }
  93:dsp/filters/OnePoleFilters.cpp **** 
  94:dsp/filters/OnePoleFilters.cpp **** DCBlocker::DCBlocker(float cutoffFreq) {
  95:dsp/filters/OnePoleFilters.cpp ****     setSampleRate(32000.0);
  96:dsp/filters/OnePoleFilters.cpp ****     setCutoffFreq(cutoffFreq);
  97:dsp/filters/OnePoleFilters.cpp ****     clear();
  98:dsp/filters/OnePoleFilters.cpp **** }
  99:dsp/filters/OnePoleFilters.cpp **** 
 100:dsp/filters/OnePoleFilters.cpp **** float DCBlocker::process(float input) {
 101:dsp/filters/OnePoleFilters.cpp ****     output = input - _z + _b * output;
 102:dsp/filters/OnePoleFilters.cpp ****     _z = input;
 103:dsp/filters/OnePoleFilters.cpp ****     return output;
 104:dsp/filters/OnePoleFilters.cpp **** }
 105:dsp/filters/OnePoleFilters.cpp **** 
 106:dsp/filters/OnePoleFilters.cpp **** void DCBlocker::clear() {
 107:dsp/filters/OnePoleFilters.cpp ****     _z = 0.0;
 108:dsp/filters/OnePoleFilters.cpp ****     output = 0.0;
 109:dsp/filters/OnePoleFilters.cpp **** }
 110:dsp/filters/OnePoleFilters.cpp **** 
 111:dsp/filters/OnePoleFilters.cpp **** void DCBlocker::setSampleRate(float sampleRate) {
 112:dsp/filters/OnePoleFilters.cpp ****     _sampleRate = sampleRate;
 1115              		.loc 1 112 17 is_stmt 0 view .LVU325
 1116 0000 0649     		ldr	r1, .L46
 1117              	.LVL49:
 1118              		.loc 1 112 17 view .LVU326
ARM GAS  C:\Users\digit\AppData\Local\Temp\ccV9ljMH.s 			page 27


 1119              	.LBE161:
 1120              	.LBI160:
 111:dsp/filters/OnePoleFilters.cpp ****     _sampleRate = sampleRate;
 1121              		.loc 1 111 6 is_stmt 1 view .LVU327
 1122              	.LBB166:
 1123              		.loc 1 112 5 view .LVU328
 1124              	.LBE166:
 1125              	.LBE160:
 1126              	.LBB170:
 1127              	.LBB171:
 107:dsp/filters/OnePoleFilters.cpp ****     output = 0.0;
 1128              		.loc 1 107 8 is_stmt 0 view .LVU329
 1129 0002 0022     		movs	r2, #0
 1130              	.LBE171:
 1131              	.LBE170:
 1132              	.LBB174:
 1133              	.LBB175:
 113:dsp/filters/OnePoleFilters.cpp ****     _maxCutoffFreq = sampleRate / 2.0;
 114:dsp/filters/OnePoleFilters.cpp ****     setCutoffFreq(_cutoffFreq);
 115:dsp/filters/OnePoleFilters.cpp **** }
 116:dsp/filters/OnePoleFilters.cpp **** 
 117:dsp/filters/OnePoleFilters.cpp **** void DCBlocker::setCutoffFreq(float cutoffFreq) {
 118:dsp/filters/OnePoleFilters.cpp ****     _cutoffFreq = cutoffFreq;
 1134              		.loc 1 118 17 view .LVU330
 1135 0004 DFF820C0 		ldr	ip, .L46+12
 1136              	.LBE175:
 1137              	.LBE174:
 1138              	.LBB178:
 1139              	.LBB167:
 112:dsp/filters/OnePoleFilters.cpp ****     _maxCutoffFreq = sampleRate / 2.0;
 1140              		.loc 1 112 17 view .LVU331
 1141 0008 4160     		str	r1, [r0, #4]	@ float
 113:dsp/filters/OnePoleFilters.cpp ****     _maxCutoffFreq = sampleRate / 2.0;
 1142              		.loc 1 113 5 is_stmt 1 view .LVU332
 113:dsp/filters/OnePoleFilters.cpp ****     _maxCutoffFreq = sampleRate / 2.0;
 1143              		.loc 1 113 20 is_stmt 0 view .LVU333
 1144 000a 0549     		ldr	r1, .L46+4
 1145              	.LBE167:
 1146              	.LBE178:
 1147              	.LBB179:
 1148              	.LBB176:
 1149              		.loc 1 118 17 view .LVU334
 1150 000c C0F808C0 		str	ip, [r0, #8]	@ float
 1151              	.LBE176:
 1152              	.LBE179:
 1153              	.LBB180:
 1154              	.LBB168:
 113:dsp/filters/OnePoleFilters.cpp ****     _maxCutoffFreq = sampleRate / 2.0;
 1155              		.loc 1 113 20 view .LVU335
 1156 0010 C160     		str	r1, [r0, #12]	@ float
 114:dsp/filters/OnePoleFilters.cpp **** }
 1157              		.loc 1 114 5 is_stmt 1 view .LVU336
 1158              	.LVL50:
 1159              	.LBB162:
 1160              	.LBI162:
 117:dsp/filters/OnePoleFilters.cpp ****     _cutoffFreq = cutoffFreq;
 1161              		.loc 1 117 6 view .LVU337
ARM GAS  C:\Users\digit\AppData\Local\Temp\ccV9ljMH.s 			page 28


 1162              	.LBB163:
 1163              		.loc 1 118 5 view .LVU338
 119:dsp/filters/OnePoleFilters.cpp ****     _b = 0.999;
 1164              		.loc 1 119 5 view .LVU339
 1165              		.loc 1 119 8 is_stmt 0 view .LVU340
 1166 0012 0449     		ldr	r1, .L46+8
 1167              	.LBE163:
 1168              	.LBE162:
 1169              	.LBE168:
 1170              	.LBE180:
 1171              	.LBB181:
 1172              	.LBB172:
 107:dsp/filters/OnePoleFilters.cpp ****     output = 0.0;
 1173              		.loc 1 107 8 view .LVU341
 1174 0014 4261     		str	r2, [r0, #20]	@ float
 108:dsp/filters/OnePoleFilters.cpp **** }
 1175              		.loc 1 108 12 view .LVU342
 1176 0016 0260     		str	r2, [r0]	@ float
 1177              	.LBE172:
 1178              	.LBE181:
 1179              	.LBB182:
 1180              	.LBB169:
 1181              	.LBB165:
 1182              	.LBB164:
 1183              		.loc 1 119 8 view .LVU343
 1184 0018 0161     		str	r1, [r0, #16]	@ float
 1185              	.LVL51:
 1186              		.loc 1 119 8 view .LVU344
 1187              	.LBE164:
 1188              	.LBE165:
 1189              	.LBE169:
 1190              	.LBE182:
  90:dsp/filters/OnePoleFilters.cpp ****     clear();
 1191              		.loc 1 90 5 is_stmt 1 view .LVU345
 1192              	.LBB183:
 1193              	.LBI174:
 117:dsp/filters/OnePoleFilters.cpp ****     _cutoffFreq = cutoffFreq;
 1194              		.loc 1 117 6 view .LVU346
 1195              	.LBB177:
 118:dsp/filters/OnePoleFilters.cpp ****     _b = 0.999;
 1196              		.loc 1 118 5 view .LVU347
 1197              		.loc 1 119 5 view .LVU348
 1198              		.loc 1 119 5 is_stmt 0 view .LVU349
 1199              	.LBE177:
 1200              	.LBE183:
  91:dsp/filters/OnePoleFilters.cpp **** }
 1201              		.loc 1 91 5 is_stmt 1 view .LVU350
 1202              	.LBB184:
 1203              	.LBI170:
 106:dsp/filters/OnePoleFilters.cpp ****     _z = 0.0;
 1204              		.loc 1 106 6 view .LVU351
 1205              	.LBB173:
 107:dsp/filters/OnePoleFilters.cpp ****     output = 0.0;
 1206              		.loc 1 107 5 view .LVU352
 108:dsp/filters/OnePoleFilters.cpp **** }
 1207              		.loc 1 108 5 view .LVU353
 108:dsp/filters/OnePoleFilters.cpp **** }
ARM GAS  C:\Users\digit\AppData\Local\Temp\ccV9ljMH.s 			page 29


 1208              		.loc 1 108 5 is_stmt 0 view .LVU354
 1209              	.LBE173:
 1210              	.LBE184:
  92:dsp/filters/OnePoleFilters.cpp **** 
 1211              		.loc 1 92 1 view .LVU355
 1212 001a 7047     		bx	lr
 1213              	.L47:
 1214              		.align	2
 1215              	.L46:
 1216 001c 0000FA46 		.word	1190789120
 1217 0020 00007A46 		.word	1182400512
 1218 0024 77BE7F3F 		.word	1065336439
 1219 0028 0000A041 		.word	1101004800
 1220              		.cfi_endproc
 1221              	.LFE560:
 1223              		.global	_ZN9DCBlockerC1Ev
 1224              		.thumb_set _ZN9DCBlockerC1Ev,_ZN9DCBlockerC2Ev
 1225              		.section	.text._ZN9DCBlockerC2Ef,"ax",%progbits
 1226              		.align	1
 1227              		.p2align 2,,3
 1228              		.global	_ZN9DCBlockerC2Ef
 1229              		.syntax unified
 1230              		.thumb
 1231              		.thumb_func
 1232              		.fpu fpv5-d16
 1234              	_ZN9DCBlockerC2Ef:
 1235              	.LVL52:
 1236              	.LFB563:
  94:dsp/filters/OnePoleFilters.cpp ****     setSampleRate(32000.0);
 1237              		.loc 1 94 1 is_stmt 1 view -0
 1238              		.cfi_startproc
 1239              		@ args = 0, pretend = 0, frame = 0
 1240              		@ frame_needed = 0, uses_anonymous_args = 0
 1241              		@ link register save eliminated.
  95:dsp/filters/OnePoleFilters.cpp ****     setCutoffFreq(cutoffFreq);
 1242              		.loc 1 95 5 view .LVU357
 1243              	.LBB185:
 1244              	.LBB186:
 112:dsp/filters/OnePoleFilters.cpp ****     _maxCutoffFreq = sampleRate / 2.0;
 1245              		.loc 1 112 17 is_stmt 0 view .LVU358
 1246 0000 0549     		ldr	r1, .L49
 1247              	.LVL53:
 112:dsp/filters/OnePoleFilters.cpp ****     _maxCutoffFreq = sampleRate / 2.0;
 1248              		.loc 1 112 17 view .LVU359
 1249              	.LBE186:
 1250              	.LBI185:
 111:dsp/filters/OnePoleFilters.cpp ****     _sampleRate = sampleRate;
 1251              		.loc 1 111 6 is_stmt 1 view .LVU360
 1252              	.LBB191:
 112:dsp/filters/OnePoleFilters.cpp ****     _maxCutoffFreq = sampleRate / 2.0;
 1253              		.loc 1 112 5 view .LVU361
 1254              	.LBE191:
 1255              	.LBE185:
 1256              	.LBB195:
 1257              	.LBB196:
 107:dsp/filters/OnePoleFilters.cpp ****     output = 0.0;
 1258              		.loc 1 107 8 is_stmt 0 view .LVU362
ARM GAS  C:\Users\digit\AppData\Local\Temp\ccV9ljMH.s 			page 30


 1259 0002 0022     		movs	r2, #0
 1260              	.LBE196:
 1261              	.LBE195:
 1262              	.LBB200:
 1263              	.LBB201:
 118:dsp/filters/OnePoleFilters.cpp ****     _b = 0.999;
 1264              		.loc 1 118 17 view .LVU363
 1265 0004 80ED020A 		vstr.32	s0, [r0, #8]
 1266              	.LBE201:
 1267              	.LBE200:
 1268              	.LBB203:
 1269              	.LBB192:
 112:dsp/filters/OnePoleFilters.cpp ****     _maxCutoffFreq = sampleRate / 2.0;
 1270              		.loc 1 112 17 view .LVU364
 1271 0008 4160     		str	r1, [r0, #4]	@ float
 113:dsp/filters/OnePoleFilters.cpp ****     setCutoffFreq(_cutoffFreq);
 1272              		.loc 1 113 5 is_stmt 1 view .LVU365
 113:dsp/filters/OnePoleFilters.cpp ****     setCutoffFreq(_cutoffFreq);
 1273              		.loc 1 113 20 is_stmt 0 view .LVU366
 1274 000a 0449     		ldr	r1, .L49+4
 1275              	.LBE192:
 1276              	.LBE203:
 1277              	.LBB204:
 1278              	.LBB197:
 107:dsp/filters/OnePoleFilters.cpp ****     output = 0.0;
 1279              		.loc 1 107 8 view .LVU367
 1280 000c 4261     		str	r2, [r0, #20]	@ float
 1281              	.LBE197:
 1282              	.LBE204:
 1283              	.LBB205:
 1284              	.LBB193:
 113:dsp/filters/OnePoleFilters.cpp ****     setCutoffFreq(_cutoffFreq);
 1285              		.loc 1 113 20 view .LVU368
 1286 000e C160     		str	r1, [r0, #12]	@ float
 114:dsp/filters/OnePoleFilters.cpp **** }
 1287              		.loc 1 114 5 is_stmt 1 view .LVU369
 1288              	.LVL54:
 1289              	.LBB187:
 1290              	.LBI187:
 117:dsp/filters/OnePoleFilters.cpp ****     _cutoffFreq = cutoffFreq;
 1291              		.loc 1 117 6 view .LVU370
 1292              	.LBB188:
 118:dsp/filters/OnePoleFilters.cpp ****     _b = 0.999;
 1293              		.loc 1 118 5 view .LVU371
 1294              		.loc 1 119 5 view .LVU372
 1295              		.loc 1 119 8 is_stmt 0 view .LVU373
 1296 0010 0349     		ldr	r1, .L49+8
 1297              	.LBE188:
 1298              	.LBE187:
 1299              	.LBE193:
 1300              	.LBE205:
 1301              	.LBB206:
 1302              	.LBB198:
 108:dsp/filters/OnePoleFilters.cpp **** }
 1303              		.loc 1 108 12 view .LVU374
 1304 0012 0260     		str	r2, [r0]	@ float
 1305              	.LBE198:
ARM GAS  C:\Users\digit\AppData\Local\Temp\ccV9ljMH.s 			page 31


 1306              	.LBE206:
 1307              	.LBB207:
 1308              	.LBB194:
 1309              	.LBB190:
 1310              	.LBB189:
 1311              		.loc 1 119 8 view .LVU375
 1312 0014 0161     		str	r1, [r0, #16]	@ float
 1313              	.LVL55:
 1314              		.loc 1 119 8 view .LVU376
 1315              	.LBE189:
 1316              	.LBE190:
 1317              	.LBE194:
 1318              	.LBE207:
  96:dsp/filters/OnePoleFilters.cpp ****     clear();
 1319              		.loc 1 96 5 is_stmt 1 view .LVU377
 1320              	.LBB208:
 1321              	.LBI200:
 117:dsp/filters/OnePoleFilters.cpp ****     _cutoffFreq = cutoffFreq;
 1322              		.loc 1 117 6 view .LVU378
 1323              	.LBB202:
 118:dsp/filters/OnePoleFilters.cpp ****     _b = 0.999;
 1324              		.loc 1 118 5 view .LVU379
 1325              		.loc 1 119 5 view .LVU380
 1326              		.loc 1 119 5 is_stmt 0 view .LVU381
 1327              	.LBE202:
 1328              	.LBE208:
  97:dsp/filters/OnePoleFilters.cpp **** }
 1329              		.loc 1 97 5 is_stmt 1 view .LVU382
 1330              	.LBB209:
 1331              	.LBI195:
 106:dsp/filters/OnePoleFilters.cpp ****     _z = 0.0;
 1332              		.loc 1 106 6 view .LVU383
 1333              	.LBB199:
 107:dsp/filters/OnePoleFilters.cpp ****     output = 0.0;
 1334              		.loc 1 107 5 view .LVU384
 108:dsp/filters/OnePoleFilters.cpp **** }
 1335              		.loc 1 108 5 view .LVU385
 108:dsp/filters/OnePoleFilters.cpp **** }
 1336              		.loc 1 108 5 is_stmt 0 view .LVU386
 1337              	.LBE199:
 1338              	.LBE209:
  98:dsp/filters/OnePoleFilters.cpp **** 
 1339              		.loc 1 98 1 view .LVU387
 1340 0016 7047     		bx	lr
 1341              	.L50:
 1342              		.align	2
 1343              	.L49:
 1344 0018 0000FA46 		.word	1190789120
 1345 001c 00007A46 		.word	1182400512
 1346 0020 77BE7F3F 		.word	1065336439
 1347              		.cfi_endproc
 1348              	.LFE563:
 1350              		.global	_ZN9DCBlockerC1Ef
 1351              		.thumb_set _ZN9DCBlockerC1Ef,_ZN9DCBlockerC2Ef
 1352              		.section	.text._ZN9DCBlocker7processEf,"ax",%progbits
 1353              		.align	1
 1354              		.p2align 2,,3
ARM GAS  C:\Users\digit\AppData\Local\Temp\ccV9ljMH.s 			page 32


 1355              		.global	_ZN9DCBlocker7processEf
 1356              		.syntax unified
 1357              		.thumb
 1358              		.thumb_func
 1359              		.fpu fpv5-d16
 1361              	_ZN9DCBlocker7processEf:
 1362              	.LVL56:
 1363              	.LFB565:
 100:dsp/filters/OnePoleFilters.cpp ****     output = input - _z + _b * output;
 1364              		.loc 1 100 39 is_stmt 1 view -0
 1365              		.cfi_startproc
 1366              		@ args = 0, pretend = 0, frame = 0
 1367              		@ frame_needed = 0, uses_anonymous_args = 0
 1368              		@ link register save eliminated.
 101:dsp/filters/OnePoleFilters.cpp ****     _z = input;
 1369              		.loc 1 101 5 view .LVU389
 101:dsp/filters/OnePoleFilters.cpp ****     _z = input;
 1370              		.loc 1 101 20 is_stmt 0 view .LVU390
 1371 0000 D0ED056A 		vldr.32	s13, [r0, #20]
 102:dsp/filters/OnePoleFilters.cpp ****     return output;
 1372              		.loc 1 102 8 view .LVU391
 1373 0004 80ED050A 		vstr.32	s0, [r0, #20]
 101:dsp/filters/OnePoleFilters.cpp ****     _z = input;
 1374              		.loc 1 101 20 view .LVU392
 1375 0008 30EE660A 		vsub.f32	s0, s0, s13
 1376              	.LVL57:
 101:dsp/filters/OnePoleFilters.cpp ****     _z = input;
 1377              		.loc 1 101 25 view .LVU393
 1378 000c D0ED007A 		vldr.32	s15, [r0]
 1379 0010 90ED047A 		vldr.32	s14, [r0, #16]
 1380 0014 A7EE270A 		vfma.f32	s0, s14, s15
 101:dsp/filters/OnePoleFilters.cpp ****     _z = input;
 1381              		.loc 1 101 12 view .LVU394
 1382 0018 80ED000A 		vstr.32	s0, [r0]
 102:dsp/filters/OnePoleFilters.cpp ****     return output;
 1383              		.loc 1 102 5 is_stmt 1 view .LVU395
 103:dsp/filters/OnePoleFilters.cpp **** }
 1384              		.loc 1 103 5 view .LVU396
 104:dsp/filters/OnePoleFilters.cpp **** 
 1385              		.loc 1 104 1 is_stmt 0 view .LVU397
 1386 001c 7047     		bx	lr
 1387              		.cfi_endproc
 1388              	.LFE565:
 1390 001e 00BF     		.section	.text._ZN9DCBlocker5clearEv,"ax",%progbits
 1391              		.align	1
 1392              		.p2align 2,,3
 1393              		.global	_ZN9DCBlocker5clearEv
 1394              		.syntax unified
 1395              		.thumb
 1396              		.thumb_func
 1397              		.fpu fpv5-d16
 1399              	_ZN9DCBlocker5clearEv:
 1400              	.LVL58:
 1401              	.LFB566:
 106:dsp/filters/OnePoleFilters.cpp ****     _z = 0.0;
 1402              		.loc 1 106 25 is_stmt 1 view -0
 1403              		.cfi_startproc
ARM GAS  C:\Users\digit\AppData\Local\Temp\ccV9ljMH.s 			page 33


 1404              		@ args = 0, pretend = 0, frame = 0
 1405              		@ frame_needed = 0, uses_anonymous_args = 0
 1406              		@ link register save eliminated.
 107:dsp/filters/OnePoleFilters.cpp ****     output = 0.0;
 1407              		.loc 1 107 5 view .LVU399
 107:dsp/filters/OnePoleFilters.cpp ****     output = 0.0;
 1408              		.loc 1 107 8 is_stmt 0 view .LVU400
 1409 0000 0023     		movs	r3, #0
 1410 0002 4361     		str	r3, [r0, #20]	@ float
 108:dsp/filters/OnePoleFilters.cpp **** }
 1411              		.loc 1 108 5 is_stmt 1 view .LVU401
 108:dsp/filters/OnePoleFilters.cpp **** }
 1412              		.loc 1 108 12 is_stmt 0 view .LVU402
 1413 0004 0360     		str	r3, [r0]	@ float
 109:dsp/filters/OnePoleFilters.cpp **** 
 1414              		.loc 1 109 1 view .LVU403
 1415 0006 7047     		bx	lr
 1416              		.cfi_endproc
 1417              	.LFE566:
 1419              		.section	.text._ZN9DCBlocker13setSampleRateEf,"ax",%progbits
 1420              		.align	1
 1421              		.p2align 2,,3
 1422              		.global	_ZN9DCBlocker13setSampleRateEf
 1423              		.syntax unified
 1424              		.thumb
 1425              		.thumb_func
 1426              		.fpu fpv5-d16
 1428              	_ZN9DCBlocker13setSampleRateEf:
 1429              	.LVL59:
 1430              	.LFB567:
 111:dsp/filters/OnePoleFilters.cpp ****     _sampleRate = sampleRate;
 1431              		.loc 1 111 49 is_stmt 1 view -0
 1432              		.cfi_startproc
 1433              		@ args = 0, pretend = 0, frame = 0
 1434              		@ frame_needed = 0, uses_anonymous_args = 0
 1435              		@ link register save eliminated.
 112:dsp/filters/OnePoleFilters.cpp ****     _maxCutoffFreq = sampleRate / 2.0;
 1436              		.loc 1 112 5 view .LVU405
 113:dsp/filters/OnePoleFilters.cpp ****     setCutoffFreq(_cutoffFreq);
 1437              		.loc 1 113 33 is_stmt 0 view .LVU406
 1438 0000 F6EE007A 		vmov.f32	s15, #5.0e-1
 1439              	.LBB210:
 1440              	.LBB211:
 1441              		.loc 1 119 8 view .LVU407
 1442 0004 044B     		ldr	r3, .L54
 1443              	.LBE211:
 1444              	.LBE210:
 112:dsp/filters/OnePoleFilters.cpp ****     _maxCutoffFreq = sampleRate / 2.0;
 1445              		.loc 1 112 17 view .LVU408
 1446 0006 80ED010A 		vstr.32	s0, [r0, #4]
 113:dsp/filters/OnePoleFilters.cpp ****     setCutoffFreq(_cutoffFreq);
 1447              		.loc 1 113 5 is_stmt 1 view .LVU409
 1448              	.LBB214:
 1449              	.LBB212:
 1450              		.loc 1 119 8 is_stmt 0 view .LVU410
 1451 000a 0361     		str	r3, [r0, #16]	@ float
 1452              	.LBE212:
ARM GAS  C:\Users\digit\AppData\Local\Temp\ccV9ljMH.s 			page 34


 1453              	.LBE214:
 113:dsp/filters/OnePoleFilters.cpp ****     setCutoffFreq(_cutoffFreq);
 1454              		.loc 1 113 33 view .LVU411
 1455 000c 60EE277A 		vmul.f32	s15, s0, s15
 113:dsp/filters/OnePoleFilters.cpp ****     setCutoffFreq(_cutoffFreq);
 1456              		.loc 1 113 20 view .LVU412
 1457 0010 C0ED037A 		vstr.32	s15, [r0, #12]
 114:dsp/filters/OnePoleFilters.cpp **** }
 1458              		.loc 1 114 5 is_stmt 1 view .LVU413
 1459              	.LVL60:
 1460              	.LBB215:
 1461              	.LBI210:
 117:dsp/filters/OnePoleFilters.cpp ****     _cutoffFreq = cutoffFreq;
 1462              		.loc 1 117 6 view .LVU414
 1463              	.LBB213:
 118:dsp/filters/OnePoleFilters.cpp ****     _b = 0.999;
 1464              		.loc 1 118 5 view .LVU415
 1465              		.loc 1 119 5 view .LVU416
 1466              		.loc 1 119 5 is_stmt 0 view .LVU417
 1467              	.LBE213:
 1468              	.LBE215:
 115:dsp/filters/OnePoleFilters.cpp **** 
 1469              		.loc 1 115 1 view .LVU418
 1470 0014 7047     		bx	lr
 1471              	.L55:
 1472 0016 00BF     		.align	2
 1473              	.L54:
 1474 0018 77BE7F3F 		.word	1065336439
 1475              		.cfi_endproc
 1476              	.LFE567:
 1478              		.section	.text._ZN9DCBlocker13setCutoffFreqEf,"ax",%progbits
 1479              		.align	1
 1480              		.p2align 2,,3
 1481              		.global	_ZN9DCBlocker13setCutoffFreqEf
 1482              		.syntax unified
 1483              		.thumb
 1484              		.thumb_func
 1485              		.fpu fpv5-d16
 1487              	_ZN9DCBlocker13setCutoffFreqEf:
 1488              	.LVL61:
 1489              	.LFB568:
 117:dsp/filters/OnePoleFilters.cpp ****     _cutoffFreq = cutoffFreq;
 1490              		.loc 1 117 49 is_stmt 1 view -0
 1491              		.cfi_startproc
 1492              		@ args = 0, pretend = 0, frame = 0
 1493              		@ frame_needed = 0, uses_anonymous_args = 0
 1494              		@ link register save eliminated.
 118:dsp/filters/OnePoleFilters.cpp ****     _b = 0.999;
 1495              		.loc 1 118 5 view .LVU420
 1496              		.loc 1 119 8 is_stmt 0 view .LVU421
 1497 0000 024B     		ldr	r3, .L57
 118:dsp/filters/OnePoleFilters.cpp ****     _b = 0.999;
 1498              		.loc 1 118 17 view .LVU422
 1499 0002 80ED020A 		vstr.32	s0, [r0, #8]
 1500              		.loc 1 119 5 is_stmt 1 view .LVU423
 1501              		.loc 1 119 8 is_stmt 0 view .LVU424
 1502 0006 0361     		str	r3, [r0, #16]	@ float
ARM GAS  C:\Users\digit\AppData\Local\Temp\ccV9ljMH.s 			page 35


 120:dsp/filters/OnePoleFilters.cpp **** }
 1503              		.loc 1 120 1 view .LVU425
 1504 0008 7047     		bx	lr
 1505              	.L58:
 1506 000a 00BF     		.align	2
 1507              	.L57:
 1508 000c 77BE7F3F 		.word	1065336439
 1509              		.cfi_endproc
 1510              	.LFE568:
 1512              		.section	.text._ZNK9DCBlocker16getMaxCutoffFreqEv,"ax",%progbits
 1513              		.align	1
 1514              		.p2align 2,,3
 1515              		.global	_ZNK9DCBlocker16getMaxCutoffFreqEv
 1516              		.syntax unified
 1517              		.thumb
 1518              		.thumb_func
 1519              		.fpu fpv5-d16
 1521              	_ZNK9DCBlocker16getMaxCutoffFreqEv:
 1522              	.LVL62:
 1523              	.LFB569:
 121:dsp/filters/OnePoleFilters.cpp **** 
 122:dsp/filters/OnePoleFilters.cpp **** float DCBlocker::getMaxCutoffFreq() const {
 1524              		.loc 1 122 43 is_stmt 1 view -0
 1525              		.cfi_startproc
 1526              		@ args = 0, pretend = 0, frame = 0
 1527              		@ frame_needed = 0, uses_anonymous_args = 0
 1528              		@ link register save eliminated.
 123:dsp/filters/OnePoleFilters.cpp ****     return _maxCutoffFreq;
 1529              		.loc 1 123 5 view .LVU427
 124:dsp/filters/OnePoleFilters.cpp **** }
 1530              		.loc 1 124 1 is_stmt 0 view .LVU428
 1531 0000 90ED030A 		vldr.32	s0, [r0, #12]
 1532 0004 7047     		bx	lr
 1533              		.cfi_endproc
 1534              	.LFE569:
 1536              		.text
 1537              	.Letext0:
 1538              		.file 2 "c:\\program files\\daisytoolchain\\arm-none-eabi\\include\\machine\\_default_types.h"
 1539              		.file 3 "c:\\program files\\daisytoolchain\\arm-none-eabi\\include\\sys\\_stdint.h"
 1540              		.file 4 "c:\\program files\\daisytoolchain\\arm-none-eabi\\include\\stdint.h"
 1541              		.file 5 "c:\\program files\\daisytoolchain\\arm-none-eabi\\include\\c++\\10.2.1\\cmath"
 1542              		.file 6 "c:\\program files\\daisytoolchain\\arm-none-eabi\\include\\c++\\10.2.1\\bits\\std_abs.h"
 1543              		.file 7 "c:\\program files\\daisytoolchain\\arm-none-eabi\\include\\c++\\10.2.1\\cstdint"
 1544              		.file 8 "c:\\program files\\daisytoolchain\\arm-none-eabi\\include\\c++\\10.2.1\\arm-none-eabi\\th
 1545              		.file 9 "c:\\program files\\daisytoolchain\\arm-none-eabi\\include\\math.h"
 1546              		.file 10 "c:\\program files\\daisytoolchain\\arm-none-eabi\\include\\c++\\10.2.1\\math.h"
 1547              		.file 11 "dsp/filters/OnePoleFilters.hpp"
 1548              		.file 12 "<built-in>"
ARM GAS  C:\Users\digit\AppData\Local\Temp\ccV9ljMH.s 			page 36

